c__builtin__
set
p1
((lp2
Vall
p3
aVjust
p4
aVdon't
p5
aVbeing
p6
aVover
p7
aVboth
p8
aVthrough
p9
aVyourselves
p10
aVits
p11
aVbefore
p12
aVo
aVdon
p13
aVhadn
p14
aVherself
p15
aVll
p16
aVhad
p17
aVshould
p18
aVto
p19
aVonly
p20
aVwon
p21
aVunder
p22
aVours
p23
aVhas
p24
aVshould've
p25
aVhaven't
p26
aVdo
p27
aVthem
p28
aVhis
p29
aVvery
p30
aVyou've
p31
aVthey
p32
aVnot
p33
aVduring
p34
aVnow
p35
aVhim
p36
aVnor
p37
aVwasn't
p38
aVd
aVdid
p39
aVdidn
p40
aVthis
p41
aVshe
p42
aVeach
p43
aVfurther
p44
aVwon't
p45
aVwhere
p46
aVmustn't
p47
aVisn't
p48
aVfew
p49
aVbecause
p50
aVyou'd
p51
aVdoing
p52
aVsome
p53
aVhasn
p54
aVhasn't
p55
aVare
p56
aVour
p57
aVourselves
p58
aVout
p59
aVwhat
p60
aVfor
p61
aVneedn't
p62
aVbelow
p63
aVre
p64
aVdoes
p65
aVshouldn't
p66
aVabove
p67
aVbetween
p68
aVmustn
p69
aVt
aVbe
p70
aVwe
p71
aVwho
p72
aVmightn't
p73
aVdoesn't
p74
aVwere
p75
aVhere
p76
aVshouldn
p77
aVhers
p78
aVaren't
p79
aVby
p80
aVon
p81
aVabout
p82
aVcouldn
p83
aVof
p84
aVwouldn't
p85
aVagainst
p86
aVs
aVisn
p87
aVor
p88
aVown
p89
aVinto
p90
aVyourself
p91
aVdown
p92
aVhadn't
p93
aVmightn
p94
aVcouldn't
p95
aVwasn
p96
aVyour
p97
aVyou're
p98
aVfrom
p99
aVher
p100
aVtheir
p101
aVaren
p102
aVit's
p103
aVthere
p104
aVbeen
p105
aVwhom
p106
aVtoo
p107
aVwouldn
p108
aVthemselves
p109
aVweren
p110
aVwas
p111
aVuntil
p112
aVmore
p113
aVhimself
p114
aVthat
p115
aVdidn't
p116
aVbut
p117
aVthat'll
p118
aVwith
p119
aVthan
p120
aVthose
p121
aVhe
p122
aVme
p123
aVmyself
p124
aVma
p125
aVweren't
p126
aVthese
p127
aVup
p128
aVwill
p129
aVwhile
p130
aVain
p131
aVcan
p132
aVtheirs
p133
aVmy
p134
aVand
p135
aVve
p136
aVthen
p137
aVis
p138
aVam
p139
aVit
p140
aVdoesn
p141
aVan
p142
aVas
p143
aVitself
p144
aVat
p145
aVhave
p146
aVin
p147
aVany
p148
aVif
p149
aVagain
p150
aVno
p151
aVwhen
p152
aVsame
p153
aVhow
p154
aVother
p155
aVwhich
p156
aVyou
p157
aVshan't
p158
aVshan
p159
aVneedn
p160
aVhaven
p161
aVafter
p162
aVmost
p163
aVsuch
p164
aVwhy
p165
aVa
aVoff
p166
aVi
aVm
aVyours
p167
aVyou'll
p168
aVso
p169
aVy
aVshe's
p170
aVthe
p171
aVhaving
p172
aVonce
p173
atRp174
.