(lp1
Vyellow
p2
aVfour
p3
aVdidntgiv
p4
aVauthoris
p5
aVscold
p6
aVlord
p7
aVwnumbrjnumbrhl
p8
aVdigit
p9
aVcallin
p10
aVclaimcod
p11
aVelvi
p12
aVdisturb
p13
aVprize
p14
aVwednesday
p15
aVsomewheresomeon
p16
aVoooh
p17
aVcheeto
p18
aVnumbrmorrowxxxx
p19
aVnigh
p20
aVmiller
p21
aVseper
p22
aVsecond
p23
aVtxtno
p24
aVclubmobi
p25
aVdialogu
p26
aVcaptain
p27
aVnumbradnumbranumbr
p28
aS'maraikara'
p29
aVofmoneysymbnumbr
p30
aVpooki
p31
aVhero
p32
aVchina
p33
aVdogwood
p34
aVdorm
p35
aVanonym
p36
aVstrewn
p37
aVk
aVspotti
p38
aVrecpt
p39
aVfumbl
p40
aVgolden
p41
aVbrought
p42
aVsterm
p43
aVsterl
p44
aVtxt
p45
aS'univ'
p46
aVunit
p47
aVspoke
p48
aVcareabout
p49
aVdnt
p50
aVemailaddress
p51
aVchinchilla
p52
aS'passport'
p53
aVstrike
p54
aVbuddi
p55
aVpaperwork
p56
aVrelax
p57
aVnotif
p58
aVyahoo
p59
aVnotic
p60
aVhurt
p61
aVglass
p62
aVholi
p63
aVhole
p64
aS'hold'
p65
aVtirupur
p66
aVaccid
p67
aVtemal
p68
aVwenev
p69
aVwana
p70
aVdrvgsto
p71
aVsmth
p72
aVwant
p73
aS'hon'
p74
aVhoo
p75
aVhol
p76
aVhow
p77
aVhot
p78
aVhor
p79
aVhop
p80
aVscorabl
p81
aVperspect
p82
aVyun
p83
aVpimpl
p84
aVplyr
p85
aVswtheart
p86
aS'lololo'
p87
aVbeauti
p88
aVbsnl
p89
aVaroundn
p90
aValian
p91
aVtulip
p92
aVfinalis
p93
aVyunni
p94
aVsomeplac
p95
aVwing
p96
aVwind
p97
aVwine
p98
aVlibertin
p99
aVkickoff
p100
aVsurrend
p101
aVappar
p102
aVvari
p103
aVfit
p104
aVfix
p105
aVmoneysymbnumbrk
p106
aVlovingli
p107
aVmoneysymbnumbrp
p108
aVhidden
p109
aVeasier
p110
aVduvet
p111
aVmtnl
p112
aVbeverag
p113
aVsurgic
p114
aVsilver
p115
aVrumour
p116
aVvivekanand
p117
aVdload
p118
aVxx
p119
aVaccommod
p120
aVarrow
p121
aVvolcano
p122
aVburial
p123
aVresub
p124
aVfgkslpopw
p125
aVzaher
p126
aVallah
p127
aVdodda
p128
aVrt
p129
aVru
p130
aVrv
p131
aVdrove
p132
aVrr
p133
aVrs
p134
aVha
p135
aVrd
p136
aVneft
p137
aVra
p138
aVro
p139
aVnavig
p140
aVdracula
p141
aVfassyol
p142
aVmuchxxlov
p143
aVchristma
p144
aVate
p145
aVnumbrmth
p146
aVatm
p147
aVunabl
p148
aVconfus
p149
aVwast
p150
aVinstruct
p151
aVicmbnumbrcktznumbrrnumbr
p152
aVkfc
p153
aS'xin'
p154
aVwedlunch
p155
aVmaster
p156
aVloosu
p157
aVgonumbr
p158
aVstuddi
p159
aVhiya
p160
aVlisten
p161
aVtermsappli
p162
aVwisdom
p163
aVtechnic
p164
aVtrek
p165
aVperil
p166
aVsaeed
p167
aVtree
p168
aVindyarock
p169
aVshower
p170
aVnumbrth
p171
aVboston
p172
aVreassur
p173
aVincrement
p174
aVdozen
p175
aS'flippin'
p176
aVthat
p177
aVwitot
p178
aVseason
p179
aVtscsnumbr
p180
aVshall
p181
aVdoin
p182
aVobject
p183
aVsknumbrxh
p184
aVdoit
p185
aVlandmark
p186
aVmouth
p187
aVaddict
p188
aS'letter'
p189
aVthriller
p190
aVprofessor
p191
aVcamp
p192
aVhospit
p193
aVtech
p194
aVneekunna
p195
aVscream
p196
aVcame
p197
aVppmnumbr
p198
aVbomb
p199
aVprin
p200
aVteresa
p201
aS'prix'
p202
aVbuzzzz
p203
aVpolynumbr
p204
aVmenu
p205
aVrestaur
p206
aVcougar
p207
aVtheme
p208
aVbusi
p209
aVrich
p210
aVrice
p211
aVbuse
p212
aVplate
p213
aVceil
p214
aVplatt
p215
aVgiggl
p216
aVuworld
p217
aVweddingfriend
p218
aVmnumbruz
p219
aVkittum
p220
aVpiggi
p221
aVkalli
p222
aVrespond
p223
aVfair
p224
aVresponc
p225
aVpadh
p226
aVrupaul
p227
aVgoodnight
p228
aVresult
p229
aVrespons
p230
aVfail
p231
aVbleh
p232
aVbest
p233
aVlotz
p234
aS'ctargg'
p235
aVlotr
p236
aVhavebeen
p237
aVwinnumbrppmxnumbragenumbr
p238
aVfigur
p239
aVscore
p240
aVglasgow
p241
aVnever
p242
aVrajini
p243
aVicicibank
p244
aVwtc
p245
aVwtf
p246
aVwth
p247
aVtoler
p248
aVroller
p249
aVaccident
p250
aVnumbrppmpoboxnumbrbhambnumbrx
p251
aVunemploy
p252
aVsoonlot
p253
aVmacedonia
p254
aVpiti
p255
aVlookin
p256
aVtomarrow
p257
aVmachan
p258
aVcountri
p259
aVlogin
p260
aVcompromis
p261
aVhappenin
p262
aVdarlin
p263
aVdiff
p264
aVassum
p265
aVfri
p266
aVfro
p267
aVfrm
p268
aVmuch
p269
aVwuld
p270
aVstadium
p271
aVhesit
p272
aS'life'
p273
aVathom
p274
aVdave
p275
aVlift
p276
aVspif
p277
aVchile
p278
aVchild
p279
aVspin
p280
aVcum
p281
aVchill
p282
aVunsold
p283
aVcommerci
p284
aVemploy
p285
aVmaneg
p286
aVmeetin
p287
aVmarriag
p288
aVkidz
p289
aVplayer
p290
aVfeed
p291
aVlyfu
p292
aVjame
p293
aVhoni
p294
aVtgxxrz
p295
aVdha
p296
aVhont
p297
aVstopnumbr
p298
aVjungl
p299
aVcostum
p300
aVrefil
p301
aVaeroplan
p302
aVtune
p303
aVtund
p304
aVbewar
p305
aVnumbrk
p306
aVxxxxxxxxxxxxxx
p307
aVgigolo
p308
aVoveremphasis
p309
aVwahe
p310
aVnydc
p311
aVwaht
p312
aVprevious
p313
aVhai
p314
aVham
p315
aVeasi
p316
aVhaf
p317
aVeast
p318
aVhat
p319
aS'hav'
p320
aVbirth
p321
aVshadow
p322
aVmeasur
p323
aVspecif
p324
aVremind
p325
aVola
p326
aVright
p327
aVold
p328
aVcrowd
p329
aVoli
p330
aS'fuuuuck'
p331
aS'creep'
p332
aVbottom
p333
aVstudentfinanci
p334
aVmoneysymbnumbrmillion
p335
aVcondit
p336
aVhpnumbr
p337
aVmuhommad
p338
aVwocay
p339
aVsensibl
p340
aVdental
p341
aVcolleg
p342
aVummifi
p343
aVslightli
p344
aVbandag
p345
aS'soc'
p346
aVfnumbrq
p347
aS'honeymoon'
p348
aVsol
p349
aS'soo'
p350
aVcreativ
p351
aVpxnumbr
p352
aVsmsservic
p353
aVjanx
p354
aVsuffici
p355
aVsupport
p356
aVhappi
p357
aVavail
p358
aVacknowledg
p359
aS'jane'
p360
aVmusic
p361
aVconstantli
p362
aVheadach
p363
aVoffer
p364
aVpaypal
p365
aVonluy
p366
aVlayin
p367
aVpest
p368
aVwyli
p369
aVrajnik
p370
aVtextbook
p371
aVexist
p372
aS'ericsson'
p373
aVdealer
p374
aVfloor
p375
aVactor
p376
aVflood
p377
aVrole
p378
aViriv
p379
aVnumbrday
p380
aVsmell
p381
aVroll
p382
aVpremarica
p383
aVintend
p384
aVfathima
p385
aVintent
p386
aVnxt
p387
aVdateboxnumbressexcmnumbrxn
p388
aVtime
p389
aVpush
p390
aVtimi
p391
aVsday
p392
aVchain
p393
aVwhoever
p394
aVsaibaba
p395
aVcudnt
p396
aS'oso'
p397
aVokor
p398
aVdecid
p399
aS'baller'
p400
aVyouphon
p401
aVoverdid
p402
aVdecim
p403
aValrit
p404
aVsubtoitl
p405
aVcheat
p406
aVphne
p407
aVdecis
p408
aVcomuk
p409
aVfollowin
p410
aVmacho
p411
aS'machi'
p412
aVjewelri
p413
aVjeri
p414
aVprepaid
p415
aVdoke
p416
aVevng
p417
aVexact
p418
aVtear
p419
aVteas
p420
aVleftov
p421
aVpretsovru
p422
aVblastin
p423
aVteam
p424
aVcooki
p425
aVprevent
p426
aVvideochat
p427
aVunmit
p428
aVsigh
p429
aVcompens
p430
aVsign
p431
aVrentl
p432
aVworkand
p433
aVheadset
p434
aVfreaki
p435
aVmelt
p436
aVcurrent
p437
aVaxel
p438
aVmell
p439
aVthecd
p440
aVheltini
p441
aVground
p442
aVboost
p443
aS'aint'
p444
aVwoot
p445
aVaddress
p446
aVgalileo
p447
aValong
p448
aVyetti
p449
aVbrilliant
p450
aVwannumbr
p451
aVinflux
p452
aVlove
p453
aVprefer
p454
aVfake
p455
aVinstal
p456
aVbloodi
p457
aVnewslett
p458
aVwicket
p459
aVincreas
p460
aVangri
p461
aVtightli
p462
aVafford
p463
aVpeopl
p464
aVooooooh
p465
aVappendix
p466
aVeasiest
p467
aVbehalf
p468
aVhussey
p469
aVpretend
p470
aVvega
p471
aVwhatev
p472
aVlogon
p473
aVproblemat
p474
aVmuah
p475
aVemoneysymbnd
p476
aVrecycl
p477
aVlido
p478
aVdatz
p479
aVfilthi
p480
aVmonkeespeopl
p481
aVsuntec
p482
aS'date'
p483
aVsuck
p484
aVdata
p485
aVbrainless
p486
aVstress
p487
aVsr
p488
aVsp
p489
aVst
p490
aVundrstnd
p491
aVsi
p492
aVsh
p493
aVtruck
p494
aVsn
p495
aVsm
p496
aVswollen
p497
aVsc
p498
aVsg
p499
aVtravel
p500
aVse
p501
aS'sd'
p502
aVnumbrstoptxt
p503
aVvaazhthukk
p504
aVspeedchat
p505
aVelain
p506
aVkonw
p507
aVdisconnect
p508
aVfixedlin
p509
aVavin
p510
aVirrit
p511
aVinstantli
p512
aVjiu
p513
aVynumbr
p514
aVsmarter
p515
aVfeelin
p516
aVtwilight
p517
aVpokkiri
p518
aVrevers
p519
aVupdat
p520
aVnatalienumbrknumbr
p521
aVreceipt
p522
aVcumin
p523
aVsponsor
p524
aVpataistha
p525
aValwi
p526
aVblu
p527
aValwa
p528
aVfrontiervil
p529
aVmissunderstd
p530
aVwiskey
p531
aS'trauma'
p532
aVinternet
p533
aVhcl
p534
aVsheffield
p535
aVmillion
p536
aVenvelop
p537
aVgrandma
p538
aVvijaykanth
p539
aVthankyou
p540
aVrael
p541
aVdunno
p542
aVwrong
p543
aVnewquay
p544
aVhooch
p545
aVneglect
p546
aVoper
p547
aVoni
p548
aVfrwd
p549
aVspoken
p550
aVpotter
p551
aVone
p552
aVspanish
p553
aVvote
p554
aVopen
p555
aVurin
p556
aVsozi
p557
aVdefinitli
p558
aVbite
p559
aVupstair
p560
aVukp
p561
aVciti
p562
aVfml
p563
aVwalik
p564
aVconveni
p565
aVprovinc
p566
aVsnatch
p567
aVfloppi
p568
aVboyfriend
p569
aVremembr
p570
aS'breadstick'
p571
aVcutefrnd
p572
aS'arun'
p573
aVarul
p574
aVprospect
p575
aVsao
p576
aVsam
p577
aVthepub
p578
aVargument
p579
aVsae
p580
aVsad
p581
aVwoah
p582
aVsay
p583
aVsar
p584
aVsaw
p585
aVsat
p586
aVzoe
p587
aVbabysit
p588
aVgoodmat
p589
aVaproach
p590
aVnote
p591
aS'taka'
p592
aVtake
p593
aVericson
p594
aVnoth
p595
aVprinter
p596
aVknew
p597
aVbuffet
p598
aVabus
p599
aVknee
p600
aVsall
p601
aVphil
p602
aVdrive
p603
aVaxi
p604
aVsalt
p605
aVsagamu
p606
aVbright
p607
aVslot
p608
aVslow
p609
aVtransact
p610
aVgotbab
p611
aVactiv
p612
aVxma
p613
aS'foward'
p614
aVthedailydraw
p615
aVactin
p616
aVhockey
p617
aVslob
p618
aVpressi
p619
aVcarolina
p620
aVpsychiatrist
p621
aVchamplaxig
p622
aVmurali
p623
aVrequir
p624
aVnumbrgeva
p625
aVartist
p626
aVwherr
p627
aS'borrow'
p628
aVaptitud
p629
aVracal
p630
aVdnumbrwv
p631
aS'roger'
p632
aVcashbin
p633
aVtortilla
p634
aVnumbrpp
p635
aVnumbrpw
p636
aVnumbrpx
p637
aVnumbrph
p638
aVnumbrpm
p639
aVdormitori
p640
aVnumbrnyt
p641
aVstopsm
p642
aS'cttargg'
p643
aS'callsmoneysymbnumbr'
p644
aVdinero
p645
aVavaila
p646
aVolayiwola
p647
aVoverdos
p648
aVjumper
p649
aVscreen
p650
aVpunto
p651
aVspare
p652
aVshortag
p653
aVspark
p654
aVbeliv
p655
aVmani
p656
aVpanick
p657
aVtwin
p658
aVanti
p659
aVmapquest
p660
aVboat
p661
aVstretch
p662
aVwest
p663
aVbreath
p664
aVreflex
p665
aS'gist'
p666
aVhlday
p667
aVthousand
p668
aVresolut
p669
aVnumbrthmarch
p670
aVaiya
p671
aVchap
p672
aVfreephon
p673
aVive
p674
aVmasteriast
p675
aVconvinc
p676
aVsonetim
p677
aVblah
p678
aVshindig
p679
aS'thinkin'
p680
aVeverynumbr
p681
aVthirtyeight
p682
aVaskin
p683
aVcheeri
p684
aVcallon
p685
aVdefo
p686
aVcosta
p687
aVknicker
p688
aVnumbrcmnumbr
p689
aVgeniu
p690
aVgrumpi
p691
aVhubbi
p692
aVnothin
p693
aVsummer
p694
aVjst
p695
aVforevr
p696
aVrest
p697
aVweekli
p698
aVghodbandar
p699
aVconcentr
p700
aVworkag
p701
aVlittl
p702
aVkerala
p703
aVexercis
p704
aVproze
p705
aVaround
p706
aVdark
p707
aVtraffic
p708
aVdarl
p709
aVworld
p710
aVlnli
p711
aVdare
p712
aVnumbrapr
p713
aVstranger
p714
aVquizclub
p715
aVtsunami
p716
aVmanag
p717
aVgimmi
p718
aVpdate_now
p719
aVortxt
p720
aVprashanthettan
p721
aS'playin'
p722
aVtote
p723
aVnoon
p724
aVdefinit
p725
aVevapor
p726
aS'comingdown'
p727
aVpower
p728
aVyetund
p729
aVnumbrtxt
p730
aVleadership
p731
aValaipayuth
p732
aS'acc'
p733
aVstone
p734
aVcomfey
p735
aVxoxo
p736
aVach
p737
aVaco
p738
aVchrgd
p739
aVneighbor
p740
aVact
p741
aVluck
p742
aVwaheeda
p743
aVeffici
p744
aVcharli
p745
aVhep
p746
aVertini
p747
aS'hex'
p748
aVhey
p749
aVinvnt
p750
aVhee
p751
aVresum
p752
aVhen
p753
aVtissco
p754
aVtellmiss
p755
aVmisss
p756
aVproject
p757
aVbottl
p758
aVbundl
p759
aVhairdress
p760
aVspider
p761
aVsoryda
p762
aVnumbrpric
p763
aVcongratul
p764
aVtreacl
p765
aVpull
p766
aS'rush'
p767
aVdirti
p768
aVxxxxxxx
p769
aVflirt
p770
aVtini
p771
aVdarker
p772
aVaa
p773
aVgone
p774
aVac
p775
aVgong
p776
aVgona
p777
aVcreat
p778
aVnumbrml
p779
aS'ah'
p780
aVak
p781
aVdoug
p782
aVam
p783
aVal
p784
aVuin
p785
aVkuch
p786
aVar
p787
aVnumbrmp
p788
aS'av'
p789
aS'ay'
p790
aS'ax'
p791
aVtranquil
p792
aVcream
p793
aVyoga
p794
aVgoogl
p795
aVpuppi
p796
aVtight
p797
aVyummmm
p798
aVpoboxnumbrnnumbrtfnumbrp
p799
aVsculptur
p800
aVgenuin
p801
aVterri
p802
aVopenin
p803
aVclosebi
p804
aS'eruku'
p805
aVmask
p806
aVgroov
p807
aVstoptxtstopmoneysymbnumbr
p808
aVadam
p809
aVnorcorp
p810
aVessay
p811
aVsch
p812
aVdsn
p813
aVnumbrstoptx
p814
aVbridgwat
p815
aVtv
p816
aVtt
p817
aVts
p818
aVtp
p819
aVcmnumbr
p820
aVhillsborough
p821
aVnora
p822
aVtm
p823
aVth
p824
aVti
p825
aVsmile
p826
aVte
p827
aVtb
p828
aVtc
p829
aVnorm
p830
aVta
p831
aVmufti
p832
aVpple
p833
aS'perumbavoor'
p834
aVcheckin
p835
aVcolani
p836
aVentrynumbr
p837
aVstrang
p838
aVpeski
p839
aS'harri'
p840
aVshanil
p841
aVcolleagu
p842
aVdodgey
p843
aVsang
p844
aVadjust
p845
aVsmall
p846
aVpase
p847
aVsync
p848
aVhasbro
p849
aVpast
p850
aVsandiago
p851
aVnotixiqu
p852
aVpass
p853
aVhealer
p854
aVriddanc
p855
aVclock
p856
aVsection
p857
aVdelet
p858
aVmethod
p859
aVburgundi
p860
aVluci
p861
aVfull
p862
aVsarasota
p863
aVfave
p864
aVtiim
p865
aVitwhichturnedinto
p866
aVsender
p867
aVtomorw
p868
aVprior
p869
aS'hamster'
p870
aVsocial
p871
aVaction
p872
aVcountin
p873
aVgoss
p874
aVvic
p875
aVvia
p876
aVdepart
p877
aS'thanksnumbr'
p878
aVvip
p879
aVsavamob
p880
aVnumbrrd
p881
aS'gosh'
p882
aVcareer
p883
aVselect
p884
aS'kaitlyn'
p885
aVtoaday
p886
aS'sitter'
p887
aVmorn
p888
aS'door'
p889
aVgnun
p890
aVhundr
p891
aVspoilt
p892
aVbian
p893
aVcompani
p894
aVdoom
p895
aVmall
p896
aVsent
p897
aVlearn
p898
aVmale
p899
aS'mnth'
p900
aVprompt
p901
aVchalleng
p902
aVregistr
p903
aVaccept
p904
aVprsn
p905
aVdress
p906
aVhuge
p907
aVbrowni
p908
aVxxxx
p909
aVhugh
p910
aVdisclos
p911
aVboooo
p912
aVhogidh
p913
aVsimpl
p914
aVupto
p915
aVsomtim
p916
aVsoundtrack
p917
aS'plane'
p918
aVwaver
p919
aVlanka
p920
aVagalla
p921
aVvijay
p922
aVwrench
p923
aVrowdi
p924
aVcheckbox
p925
aVfreind
p926
aVpant
p927
aVnighter
p928
aVtrade
p929
aVpaper
p930
aVitz
p931
aVprabu
p932
aVwrc
p933
aVallo
p934
aVwrk
p935
aVsauci
p936
aVpraveesh
p937
aVsubsnumbr
p938
aVamoneysymbnumbr
p939
aVgetsleep
p940
aVnnumbrdx
p941
aVmagic
p942
aVenufcredeit
p943
aVagenumbrppermesssubscript
p944
aVtroubleshoot
p945
aVswimsuit
p946
aVachiev
p947
aS'found'
p948
aVembarass
p949
aValtonumbr
p950
aVengland
p951
aVthrowin
p952
aVrealli
p953
aVnumbrtcr
p954
aS'research'
p955
aVblacko
p956
aVpolyphon
p957
aVbye
p958
aVjeremiah
p959
aVbeliev
p960
aS'eightish'
p961
aVvipclubnumbru
p962
aVevr
p963
aVdippeditinadew
p964
aVstruggl
p965
aVw
aVprabha
p966
aVmajor
p967
aVbedreal
p968
aVnumber
p969
aVguai
p970
aVceleb
p971
aVhorribl
p972
aVgrnumbrfun
p973
aVelama
p974
aVinshah
p975
aVguess
p976
aVsonyericsson
p977
aVjet
p978
aVzindgi
p979
aVjez
p980
aVtata
p981
aVjen
p982
aVbrowsin
p983
aVrelationship
p984
aS'deeraj'
p985
aVmmmm
p986
aVburrito
p987
aVgrace
p988
aVrememberi
p989
aVperfum
p990
aVaah
p991
aVovertim
p992
aVvideo
p993
aVmcfli
p994
aVcomput
p995
aVbeforehand
p996
aVpackag
p997
aVipaditan
p998
aS'sell'
p999
aVself
p1000
aVinstituit
p1001
aValso
p1002
aVdehydr
p1003
aS'sherawat'
p1004
aVplay
p1005
aVaiyar
p1006
aVlavend
p1007
aVaiyah
p1008
aVplan
p1009
aVoyster
p1010
aS'exe'
p1011
aVthirunelvali
p1012
aVcover
p1013
aVext
p1014
aVabnorm
p1015
aVexp
p1016
aVbarrel
p1017
aVgoodnit
p1018
aS'chechi'
p1019
aVreallyne
p1020
aS'ugh'
p1021
aVugo
p1022
aVgold
p1023
aVparantella
p1024
aVnasdaq
p1025
aVnumbroz
p1026
aVoja
p1027
aVfireplac
p1028
aVsayin
p1029
aS'scarcasim'
p1030
aVcompass
p1031
aVambiti
p1032
aVsunni
p1033
aVresend
p1034
aVenemi
p1035
aVcre
p1036
aVbarolla
p1037
aVnowher
p1038
aVset
p1039
aVjade
p1040
aVsez
p1041
aVjada
p1042
aVsex
p1043
aVsef
p1044
aS'see'
p1045
aVsed
p1046
aS'sec'
p1047
aVsea
p1048
aVsen
p1049
aVsem
p1050
aVaberdeen
p1051
aVseh
p1052
aVjaklin
p1053
aVspiritu
p1054
aVrite
p1055
aVnope
p1056
aVcompliment
p1057
aVlucozad
p1058
aVbajarangabali
p1059
aVourback
p1060
aVboxnumbrsknumbrch
p1061
aVndship
p1062
aVlast
p1063
aVthou
p1064
aVthot
p1065
aVnatali
p1066
aVpatti
p1067
aVmaneesha
p1068
aVwhole
p1069
aVload
p1070
aVfrosti
p1071
aVbell
p1072
aVschedul
p1073
aVloan
p1074
aVrofl
p1075
aVchurch
p1076
aVollu
p1077
aVbelt
p1078
aVworthless
p1079
aVdevil
p1080
aVfilth
p1081
aVdevic
p1082
aVperpetu
p1083
aVxam
p1084
aVmonthli
p1085
aVedukkukaye
p1086
aVnri
p1087
aVfire
p1088
aVinfect
p1089
aVfund
p1090
aVeduc
p1091
aVfunk
p1092
aS'guoyang'
p1093
aVstraight
p1094
aVbudget
p1095
aVpiah
p1096
aVerror
p1097
aVyovil
p1098
aVreal
p1099
aVpound
p1100
aVirulina
p1101
aVchase
p1102
aVdecor
p1103
aVeveryso
p1104
aVseek
p1105
aVshorter
p1106
aVfunni
p1107
aVboxnumbr
p1108
aVlonlin
p1109
aVkodthini
p1110
aValert
p1111
aS'walmart'
p1112
aVlandlin
p1113
aVeuro
p1114
aVpickl
p1115
aVtomorro
p1116
aVexpens
p1117
aVwicklow
p1118
aS'knw'
p1119
aVleona
p1120
aVacadem
p1121
aVwewa
p1122
aVtim
p1123
aVkalaachutaarama
p1124
aVshexi
p1125
aVsnappi
p1126
aVunsecur
p1127
aVeeri
p1128
aVpostcod
p1129
aVxuhui
p1130
aS'mandan'
p1131
aVaustralia
p1132
aVtallahasse
p1133
aVformat
p1134
aVcoupla
p1135
aVunumbrmoro
p1136
aS'numbrldnwnumbranumbrrwnumbr'
p1137
aVformal
p1138
aVvday
p1139
aVstylist
p1140
aVstylish
p1141
aViwana
p1142
aVspring
p1143
aS'enketa'
p1144
aVpalm
p1145
aVsight
p1146
aVparchi
p1147
aVsprint
p1148
aVpale
p1149
aVbroadband
p1150
aVrecognis
p1151
aVmummi
p1152
aVnovelti
p1153
aVmachin
p1154
aVbf
p1155
aVba
p1156
aVbb
p1157
aVbc
p1158
aS'bk'
p1159
aVbt
p1160
aVbu
p1161
aVbw
p1162
aVsanta
p1163
aVvictoria
p1164
aVbx
p1165
aVpanason
p1166
aVjealou
p1167
aVnetflix
p1168
aVunredeem
p1169
aVdaywith
p1170
aVrepair
p1171
aVdoesdiscount
p1172
aVmobstorequiznumbrppm
p1173
aVoccupi
p1174
aVspam
p1175
aVsubmit
p1176
aVcustom
p1177
aVbcaz
p1178
aVsuit
p1179
aVzealand
p1180
aVagidhan
p1181
aVlink
p1182
aVline
p1183
aVuv
p1184
aVup
p1185
aVus
p1186
aVur
p1187
aVum
p1188
aVun
p1189
aVuh
p1190
aVuk
p1191
aVud
p1192
aVsupervisor
p1193
aVchad
p1194
aVhaunt
p1195
aVphonenumbr
p1196
aVchat
p1197
aS'intrepid'
p1198
aVwebadr
p1199
aVscrape
p1200
aS'trouser'
p1201
aVsportsx
p1202
aVfishrman
p1203
aVromcapspam
p1204
aVnumbrhook
p1205
aS'aust'
p1206
aVwrongli
p1207
aVago
p1208
aVtohar
p1209
aVlane
p1210
aVland
p1211
aValgorithm
p1212
aVage
p1213
aVbarkley
p1214
aVhella
p1215
aVlanr
p1216
aVfresh
p1217
aVmarvel
p1218
aVhello
p1219
aVnoooooooo
p1220
aVinsha
p1221
aVcode
p1222
aVnumbrmoneysymbnumbr
p1223
aVscratch
p1224
aVgossip
p1225
aVchillin
p1226
aVyoung
p1227
aVsend
p1228
aS'birla'
p1229
aVsens
p1230
aVquizz
p1231
aVgarden
p1232
aVnatnumbr
p1233
aVaccount
p1234
aVdisast
p1235
aVgrnumbrpriz
p1236
aVisaiah
p1237
aVwipe
p1238
aVtri
p1239
aVwadebridg
p1240
aVevn
p1241
aVevo
p1242
aVgettin
p1243
aVeve
p1244
aS'calicut'
p1245
aVrace
p1246
aVmarrg
p1247
aVmarri
p1248
aVleonardo
p1249
aVvehicl
p1250
aVnumbrim
p1251
aVnatur
p1252
aVrnumbr
p1253
aVodi
p1254
aVhyde
p1255
aVsnowbal
p1256
aVdeltomorrow
p1257
aVmonkeyaround
p1258
aVtmorrow
p1259
aVvictor
p1260
aVindex
p1261
aVurgoin
p1262
aVweiyi
p1263
aVmultimedia
p1264
aVtwink
p1265
aVindian
p1266
aVbiro
p1267
aVbird
p1268
aVlanumbrwu
p1269
aVleg
p1270
aS'leh'
p1271
aVlei
p1272
aVpunch
p1273
aVleo
p1274
aVsceneri
p1275
aVlet
p1276
aVfifteen
p1277
aVgreat
p1278
aVbookedth
p1279
aVtechnolog
p1280
aVeatin
p1281
aVsurvey
p1282
aVdefeat
p1283
aVpopcorn
p1284
aVopinion
p1285
aVrdi
p1286
aVfirefox
p1287
aVemot
p1288
aVsalesman
p1289
aVcommun
p1290
aVdoubl
p1291
aVupgrad
p1292
aVnext
p1293
aVeleven
p1294
aVdoubt
p1295
aVbabe
p1296
aVbabi
p1297
aVchariti
p1298
aVgokila
p1299
aVgreatli
p1300
aVpout
p1301
aVwhen
p1302
aVpour
p1303
aVthin
p1304
aVthia
p1305
aVnumbrqxjnumbr
p1306
aVlemm
p1307
aVprocess
p1308
aVlock
p1309
aVhigh
p1310
aVbend
p1311
aVslip
p1312
aVtextand
p1313
aVyarasu
p1314
aVcomedi
p1315
aVdelay
p1316
aVlocaxx
p1317
aVstand
p1318
aVshitinnit
p1319
aVevri
p1320
aVawait
p1321
aVgeknumbr
p1322
aVfite
p1323
aVscammer
p1324
aVpocket
p1325
aVessenti
p1326
aVseriou
p1327
aVissu
p1328
aVallow
p1329
aVmovi
p1330
aVmove
p1331
aVuncount
p1332
aVperfect
p1333
aVotbox
p1334
aVchosen
p1335
aVshola
p1336
aVnumbrmorro
p1337
aVdecad
p1338
aVspageddi
p1339
aVrecept
p1340
aVcust
p1341
aVgving
p1342
aVkisi
p1343
aVearn
p1344
aVdock
p1345
aVsnake
p1346
aVkiss
p1347
aVtrebl
p1348
aVcage
p1349
aViccha
p1350
aVanyth
p1351
aVbetta
p1352
aVecstaci
p1353
aVtruth
p1354
aVbeneath
p1355
aVbettr
p1356
aVcroydon
p1357
aVjanarig
p1358
aVdiffer
p1359
aVswashbuckl
p1360
aVwinterston
p1361
aVmobno
p1362
aS'matric'
p1363
aVstare
p1364
aVshitload
p1365
aVdurban
p1366
aVtempl
p1367
aVbellearli
p1368
aVgraze
p1369
aVshun
p1370
aVembarrass
p1371
aVcould
p1372
aVspile
p1373
aVscari
p1374
aVlength
p1375
aVlogoff
p1376
aVoutsid
p1377
aVscare
p1378
aVveggi
p1379
aVsoftwar
p1380
aVkaiez
p1381
aVblown
p1382
aVenjoyin
p1383
aS'payoh'
p1384
aVamnow
p1385
aVsmaller
p1386
aVsystem
p1387
aVmtmsg
p1388
aVbackdoor
p1389
aVtermin
p1390
aS'stomach'
p1391
aVlovli
p1392
aVdhanush
p1393
aVgayl
p1394
aVsteed
p1395
aVcustomercar
p1396
aVbother
p1397
aVtorrent
p1398
aVsteer
p1399
aVbeggar
p1400
aVterribl
p1401
aVpartnership
p1402
aVclearli
p1403
aVtonight
p1404
aVsky
p1405
aVtessi
p1406
aVmesseng
p1407
aVwahleykkum
p1408
aVnumbrmwen
p1409
aVeerulli
p1410
aVnetcollex
p1411
aVbnumbrutel
p1412
aVkorean
p1413
aVproblm
p1414
aVtoughest
p1415
aVmuchand
p1416
aVvisa
p1417
aVjul
p1418
aS'aathi'
p1419
aVnumbrnight
p1420
aVplacement
p1421
aVface
p1422
aVfact
p1423
aVwotz
p1424
aS'numbrmorrow'
p1425
aVthesmszon
p1426
aVwikipedia
p1427
aVborderlin
p1428
aVwotu
p1429
aVbring
p1430
aVbedroom
p1431
aVrough
p1432
aS'aaooooright'
p1433
aVfootbal
p1434
aVjaz
p1435
aVwantnumbrcom
p1436
aVjay
p1437
aS'jap'
p1438
aVjan
p1439
aVjam
p1440
aVtape
p1441
aVnoic
p1442
aVhope
p1443
aVmeant
p1444
aS'jackpot'
p1445
aVfamiliar
p1446
aVlucki
p1447
aVsmash
p1448
aVyaxxx
p1449
aS'cheyyamo'
p1450
aVscrumptiou
p1451
aS'h'
aVsummon
p1452
aVstuff
p1453
aVhoneybe
p1454
aVgbp
p1455
aVbtw
p1456
aVpavanaputra
p1457
aVpassabl
p1458
aVpptnumbrxnumbr
p1459
aVnuclear
p1460
aVnationwid
p1461
aVdestini
p1462
aVcensu
p1463
aVexpressoff
p1464
aS'email'
p1465
aVbrison
p1466
aVdartboard
p1467
aVdislik
p1468
aVbadrith
p1469
aVfeellikw
p1470
aVenumbr
p1471
aVtantrum
p1472
aVtlp
p1473
aVdrum
p1474
aVdrug
p1475
aVharish
p1476
aVeta
p1477
aVbristol
p1478
aVnumbrmega
p1479
aS'tlk'
p1480
aVtddnewslett
p1481
aVco
p1482
aVcn
p1483
aVcm
p1484
aS'cl'
p1485
aVcc
p1486
aVcd
p1487
aVcs
p1488
aVcr
p1489
aVcp
p1490
aVcu
p1491
aVct
p1492
aS'cbe'
p1493
aVrhode
p1494
aVhottest
p1495
aVimmedi
p1496
aValett
p1497
aVneighbour
p1498
aVtogeth
p1499
aVador
p1500
aVatlanta
p1501
aVhmmross
p1502
aVspain
p1503
aVchildporn
p1504
aVneonumbr
p1505
aS'hahaha'
p1506
aS'va'
p1507
aVpurchas
p1508
aVvl
p1509
aVsite
p1510
aVvs
p1511
aVvu
p1512
aVtattoo
p1513
aVterrorist
p1514
aVmutat
p1515
aVjuan
p1516
aVmatthew
p1517
aVmutai
p1518
aVcompetit
p1519
aVspell
p1520
aVdusk
p1521
aVnikiyunumbr
p1522
aVdrink
p1523
aVupon
p1524
aVcoffe
p1525
aVphd
p1526
aS'dust'
p1527
aVikea
p1528
aVphp
p1529
aVinfact
p1530
aVaudit
p1531
aS'priest'
p1532
aVmnumbr
p1533
aVcolour
p1534
aVpolyh
p1535
aVcommand
p1536
aS'whatsup'
p1537
aVpolyc
p1538
aVnewest
p1539
aVpaus
p1540
aVless
p1541
aVmahfuuz
p1542
aVpaul
p1543
aVfaglord
p1544
aVweb
p1545
aVwee
p1546
aVwed
p1547
aVhavbeen
p1548
aVyalru
p1549
aS'wen'
p1550
aVarrest
p1551
aVcrack
p1552
aVinperson
p1553
aVmorphin
p1554
aVnvq
p1555
aVwebpag
p1556
aVpiec
p1557
aVhaul
p1558
aS'cedar'
p1559
aVdesk
p1560
aS'nvm'
p1561
aS'tick'
p1562
aVresid
p1563
aS'onion'
p1564
aVcorpor
p1565
aVdisappear
p1566
aVresiz
p1567
aVcrisi
p1568
aVtmw
p1569
aVguarante
p1570
aVsuitenumbr
p1571
aVtransport
p1572
aVnumbrdocd
p1573
aVavoid
p1574
aS'dbuk'
p1575
aVfedex
p1576
aVwoohoo
p1577
aVpassion
p1578
aS'forgiven'
p1579
aVapplebe
p1580
aVpeep
p1581
aVupdnumbr
p1582
aVstage
p1583
aVsister
p1584
aVcannam
p1585
aViknow
p1586
aVnipost
p1587
aVwarner
p1588
aVfreefon
p1589
aVshoppin
p1590
aVtheyr
p1591
aVassess
p1592
aVlnumbrr
p1593
aVsapna
p1594
aVlanumbr
p1595
aVpussi
p1596
aVmere
p1597
aVbeendrop
p1598
aVupnumbr
p1599
aVflyng
p1600
aVgut
p1601
aVwenwecan
p1602
aVhuai
p1603
aVfunction
p1604
aVinnoc
p1605
aVnotxt
p1606
aVoooooh
p1607
aVbubbletext
p1608
aVgrate
p1609
aVbatsman
p1610
aVcount
p1611
aS'numbrmoro'
p1612
aVkusruthi
p1613
aVveget
p1614
aVapnt
p1615
aVbedrm
p1616
aVotherwis
p1617
aS'problem'
p1618
aVapplausestor
p1619
aVhvae
p1620
aVsambar
p1621
aVinr
p1622
aVnovemb
p1623
aVrightli
p1624
aVrgent
p1625
aVink
p1626
aVind
p1627
aVing
p1628
aVinc
p1629
aVnonetheless
p1630
aVsexual
p1631
aVfgkslpo
p1632
aVrepeat
p1633
aVmumtaz
p1634
aVmonday
p1635
aVsugabab
p1636
aVbadass
p1637
aVghost
p1638
aVsyllabu
p1639
aVexperiencehttp
p1640
aVkanji
p1641
aVrule
p1642
aVinning
p1643
aVnurseri
p1644
aVciao
p1645
aS'drinkin'
p1646
aVnamenumbr
p1647
aVmcr
p1648
aVspjanuari
p1649
aVbike
p1650
aVrestock
p1651
aVworth
p1652
aVblanket
p1653
aVtrainner
p1654
aVchapel
p1655
aVstun
p1656
aVcme
p1657
aVupload
p1658
aVtoplay
p1659
aVred
p1660
aVsachin
p1661
aVchez
p1662
aVshut
p1663
aVhoro
p1664
aVchef
p1665
aVhors
p1666
aVpandi
p1667
aVscrappi
p1668
aVboxnumbrsknumbrwpnumbrppmnumbr
p1669
aVscroung
p1670
aVamus
p1671
aVcalcul
p1672
aVvikki
p1673
aVtoll
p1674
aVreslov
p1675
aVtold
p1676
aVmoneysymbnumbrperwksub
p1677
aVmaxnumbr
p1678
aVpleasur
p1679
aVyourinclus
p1680
aVsextextuk
p1681
aVglo
p1682
aVpocketbab
p1683
aVnumbrward
p1684
aVaudri
p1685
aVshud
p1686
aVwalkin
p1687
aVhourish
p1688
aVsmoke
p1689
aVbunker
p1690
aVstudi
p1691
aVpicsfreenumbr
p1692
aVnewspap
p1693
aVbro
p1694
aVattitud
p1695
aVadrink
p1696
aVnumbryear
p1697
aVtotal
p1698
aVbrb
p1699
aVbra
p1700
aVnumbrquit
p1701
aVchampney
p1702
aVjontin
p1703
aVsweater
p1704
aVcann
p1705
aVtryin
p1706
aVgyno
p1707
aVhaha
p1708
aVaward
p1709
aVmathew
p1710
aVtariff
p1711
aVsatthen
p1712
aVtallent
p1713
aVword
p1714
aVerr
p1715
aVjess
p1716
aVwork
p1717
aVtolerat
p1718
aVworm
p1719
aVere
p1720
aVwors
p1721
aVmoneysymbnumbraward
p1722
aVtnc
p1723
aVerm
p1724
aVpierr
p1725
aVnumbrez
p1726
aVclubnumbr
p1727
aVflung
p1728
aVindia
p1729
aVnumbrer
p1730
aVliter
p1731
aS'panren'
p1732
aVcorvett
p1733
aS'hitman'
p1734
aVrecoveri
p1735
aVinterview
p1736
aVverifi
p1737
aVbeach
p1738
aVpizza
p1739
aVfever
p1740
aVbday
p1741
aVfav
p1742
aVchines
p1743
aVlag
p1744
aVlab
p1745
aVlac
p1746
aVnumbrmil
p1747
aVlay
p1748
aVlaw
p1749
aVlap
p1750
aVlar
p1751
aVgudninumbr
p1752
aVwknd
p1753
aVshijutta
p1754
aVgreet
p1755
aVstrt
p1756
aVgreen
p1757
aVworst
p1758
aVorder
p1759
aVlindsay
p1760
aVsalon
p1761
aVzed
p1762
aVneth
p1763
aVdirtiest
p1764
aVconsent
p1765
aVoffici
p1766
aVsometext
p1767
aVincid
p1768
aS'siva'
p1769
aVsphost
p1770
aVhudgi
p1771
aVcraigslist
p1772
aVoffic
p1773
aVcarton
p1774
aVsplit
p1775
aVfranki
p1776
aS'woken'
p1777
aVsafe
p1778
aVbreak
p1779
aVband
p1780
aVbang
p1781
aVthew
p1782
aVthet
p1783
aVbani
p1784
aVbank
p1785
aS'bread'
p1786
aVtendenc
p1787
aVoxygen
p1788
aVonlynumbrmor
p1789
aVl
aS'mrng'
p1790
aVtootsi
p1791
aVlogo
p1792
aS'hostel'
p1793
aVnetwork
p1794
aVrummer
p1795
aVdiesel
p1796
aVunkempt
p1797
aVforth
p1798
aVmusicnew
p1799
aVntt
p1800
aVstandard
p1801
aVnmde
p1802
aVfixd
p1803
aVnte
p1804
aS'fring'
p1805
aVlousi
p1806
aS'dammit'
p1807
aVmaniac
p1808
aVrenew
p1809
aVindepend
p1810
aS'comin'
p1811
aVmoji
p1812
aVdogg
p1813
aVjohn
p1814
aVmassiv
p1815
aVaaniy
p1816
aVnahi
p1817
aVhappili
p1818
aVpersev
p1819
aVguild
p1820
aVprovid
p1821
aVktv
p1822
aVebay
p1823
aS'iron'
p1824
aVminut
p1825
aVtruffl
p1826
aVkintu
p1827
aVwihtuot
p1828
aVinfront
p1829
aVreali
p1830
aVsweatter
p1831
aVhaughaighgtujhyguj
p1832
aVluxuri
p1833
aVterrif
p1834
aVladen
p1835
aVcurfew
p1836
aVgermani
p1837
aVbruce
p1838
aVwhat
p1839
aVgravi
p1840
aVphase
p1841
aVproverb
p1842
aVgrave
p1843
aVofic
p1844
aVexcus
p1845
aVxafter
p1846
aVaunt
p1847
aVopposit
p1848
aVbimbo
p1849
aVovarian
p1850
aVcarryin
p1851
aVtsc
p1852
aVinvolv
p1853
aVmobsi
p1854
aVskye
p1855
aVdeepest
p1856
aVhavnumbrhear
p1857
aVnowaday
p1858
aVdl
p1859
aVhypotheticalhuagauahahuagahyuhagga
p1860
aVdi
p1861
aVnasti
p1862
aVde
p1863
aS'db'
p1864
aS'da'
p1865
aVdt
p1866
aVdr
p1867
aVdp
p1868
aVsecretari
p1869
aVgaug
p1870
aS'steak'
p1871
aVsteal
p1872
aVsteam
p1873
aVinnu
p1874
aVlovabl
p1875
aVnumbrstop
p1876
aVatur
p1877
aVnumbrperc
p1878
aVaway
p1879
aVgentleman
p1880
aVawak
p1881
aVnumbrston
p1882
aVaphex
p1883
aVwa
p1884
aVwo
p1885
aVemigr
p1886
aVwk
p1887
aVwi
p1888
aVmanki
p1889
aVwt
p1890
aVws
p1891
aVunfold
p1892
aVxchat
p1893
aVcop
p1894
aVreceivea
p1895
aVduffer
p1896
aVbrat
p1897
aVhowev
p1898
aVcoz
p1899
aVyiju
p1900
aVmorefrmmob
p1901
aVbrah
p1902
aVcom
p1903
aVctxt
p1904
aVcon
p1905
aVtone
p1906
aVwidel
p1907
aVsubscriptnnumbrgbp
p1908
aVjaya
p1909
aVitxt
p1910
aVguid
p1911
aVpriscilla
p1912
aVspeak
p1913
aVsubscrit
p1914
aVstrong
p1915
aVnalla
p1916
aVnalli
p1917
aVsubscrib
p1918
aVmobypoboxnumbrlsnumbryf
p1919
aVlotsof
p1920
aVgnt
p1921
aVproperti
p1922
aVair
p1923
aVpleassssssseeeee
p1924
aS'numbrmin'
p1925
aVaid
p1926
aVaig
p1927
aVmymobi
p1928
aVstink
p1929
aVunumbr
p1930
aVdizze
p1931
aVaudrey
p1932
aViouri
p1933
aS'transfr'
p1934
aVperform
p1935
aVjiayin
p1936
aVgentli
p1937
aVhellogorg
p1938
aVputtin
p1939
aVjerri
p1940
aVhank
p1941
aVnic
p1942
aVswell
p1943
aVhang
p1944
aVnig
p1945
aVevil
p1946
aVhand
p1947
aVrais
p1948
aVoncal
p1949
aVselfless
p1950
aVnit
p1951
aVnoworriesloan
p1952
aVkept
p1953
aVscenario
p1954
aVthx
p1955
aVgeoenvironment
p1956
aVwereth
p1957
aVthu
p1958
aVtht
p1959
aVlunsford
p1960
aVtho
p1961
aVthm
p1962
aVcontact
p1963
aVthk
p1964
aVthi
p1965
aVepi
p1966
aVreplysnumbr
p1967
aVcampu
p1968
aVphoto
p1969
aVdreamz
p1970
aVsomeonon
p1971
aS'thanku'
p1972
aVshoul
p1973
aVsocht
p1974
aVwright
p1975
aVshout
p1976
aVboard
p1977
aVhaiyoh
p1978
aVgrahmbel
p1979
aVmayb
p1980
aVsirji
p1981
aVarab
p1982
aVthuglyf
p1983
aVleagu
p1984
aVcostmoneysymbnumbrmax
p1985
aVsunoco
p1986
aVtarpon
p1987
aVskyve
p1988
aVsnumbr
p1989
aVbpo
p1990
aVnight
p1991
aVwkli
p1992
aVimagin
p1993
aVbrolli
p1994
aVnevr
p1995
aVflatter
p1996
aVpercentag
p1997
aVborn
p1998
aS'neva'
p1999
aVbore
p2000
aVeleph
p2001
aVnumbrgoten
p2002
aVthgt
p2003
aVplu
p2004
aVposh
p2005
aVpose
p2006
aVplz
p2007
aVpoboxnumbrwnumbrwq
p2008
aVphew
p2009
aVpost
p2010
aVobl
p2011
aVnumbrgb
p2012
aVnumbrgo
p2013
aVileav
p2014
aVnumbrthnov
p2015
aVcherish
p2016
aVupgrdcentr
p2017
aVcuriou
p2018
aVfloat
p2019
aVprofession
p2020
aVboxnumbrcnumbrpm
p2021
aVwnumbrin
p2022
aVopportun
p2023
aVpaye
p2024
aVwan
p2025
aVaccordingli
p2026
aVwah
p2027
aVwad
p2028
aS'ctagg'
p2029
aVfight
p2030
aVwaz
p2031
aS'way'
p2032
aVwat
p2033
aVwap
p2034
aVshudvetold
p2035
aVajith
p2036
aVprepon
p2037
aVtrue
p2038
aVreset
p2039
aVgauti
p2040
aVmaximum
p2041
aVmth
p2042
aVtonesnumbry
p2043
aVabsenc
p2044
aVtonesnumbru
p2045
aVretir
p2046
aVallday
p2047
aVfrmcloud
p2048
aVrencontr
p2049
aVabstract
p2050
aVmnumbrmnumbr
p2051
aVprayer
p2052
aVjone
p2053
aVtest
p2054
aVshrink
p2055
aVrealiti
p2056
aVkvb
p2057
aVtruro
p2058
aVweirdest
p2059
aVaffidavit
p2060
aVloyal
p2061
aVlikeyour
p2062
aVvideophon
p2063
aVclassmat
p2064
aVfox
p2065
aVglobal
p2066
aVdancc
p2067
aVanand
p2068
aVpersolvo
p2069
aVmiddl
p2070
aVnumbrbal
p2071
aVflash
p2072
aVcertainli
p2073
aVrhythm
p2074
aVamla
p2075
aVterror
p2076
aVabsolutli
p2077
aVbrown
p2078
aVblimey
p2079
aVtoothpast
p2080
aVoctob
p2081
aVbrows
p2082
aVgua
p2083
aVadministr
p2084
aVgud
p2085
aVyuou
p2086
aVp
aVsoooo
p2087
aVbutther
p2088
aVtayseer
p2089
aVabiola
p2090
aVbrave
p2091
aVregret
p2092
aValfi
p2093
aVeverytim
p2094
aVcost
p2095
aVappear
p2096
aS'uniform'
p2097
aVnumbrish
p2098
aVithink
p2099
aVappeal
p2100
aVjide
p2101
aVivatt
p2102
aVdefici
p2103
aVgener
p2104
aVsatisfi
p2105
aVhalfnumbrth
p2106
aVteacher
p2107
aVnois
p2108
aVbuck
p2109
aVbangb
p2110
aVtrial
p2111
aVbehav
p2112
aVpillow
p2113
aVcsbcmnumbrwcnumbrnnumbrxx
p2114
aVnumbrmro
p2115
aVextra
p2116
aVparagon
p2117
aVsnowboard
p2118
aVloxahatche
p2119
aVmobil
p2120
aVnumbrexit
p2121
aVmarket
p2122
aVprove
p2123
aVlive
p2124
aVvodafon
p2125
aVwrking
p2126
aVclub
p2127
aVclue
p2128
aVunconsci
p2129
aVibh
p2130
aVprepay
p2131
aVgraphic
p2132
aS'ibm'
p2133
aVibn
p2134
aVcar
p2135
aVprepar
p2136
aVwetherspoon
p2137
aVcat
p2138
aVhardest
p2139
aS'can'
p2140
aVcam
p2141
aS'cal'
p2142
aVcab
p2143
aVheart
p2144
aVpuriti
p2145
aVchip
p2146
aVchit
p2147
aVtopic
p2148
aVchik
p2149
aVspk
p2150
aVspl
p2151
aVmmmmmm
p2152
aVchic
p2153
aVoccur
p2154
aVsankatmochan
p2155
aVsayhey
p2156
aVwrite
p2157
aVnetun
p2158
aVhypertens
p2159
aVordin
p2160
aVwrith
p2161
aS'hmph'
p2162
aVproduct
p2163
aVdisagre
p2164
aVaom
p2165
aVsouthern
p2166
aVbawl
p2167
aVlancast
p2168
aVdrastic
p2169
aS'ffffuuuuuuu'
p2170
aVwthout
p2171
aVexplicit
p2172
aVoffens
p2173
aVbenni
p2174
aVapprox
p2175
aS'forfeit'
p2176
aVhaircut
p2177
aVapprov
p2178
aVdungere
p2179
aS'brain'
p2180
aVcold
p2181
aVstill
p2182
aVcola
p2183
aVenna
p2184
aVsexiest
p2185
aVwindow
p2186
aVnon
p2187
aVhassl
p2188
aVnoi
p2189
aVevon
p2190
aVnok
p2191
aS'noe'
p2192
aVnob
p2193
aVhalf
p2194
aS'not'
p2195
aVnumbrappl
p2196
aVhall
p2197
aVwont
p2198
aS'drop'
p2199
aVmagazin
p2200
aVkeri
p2201
aVjanuari
p2202
aVcourag
p2203
aVem
p2204
aS'kano'
p2205
aVdomain
p2206
aVen
p2207
aVeh
p2208
aVee
p2209
aVreplac
p2210
aVeg
p2211
aVkane
p2212
aVyeah
p2213
aVey
p2214
aVex
p2215
aVyear
p2216
aS'ew'
p2217
aVtrav
p2218
aVer
p2219
aValbum
p2220
aVsoz
p2221
aVspace
p2222
aVnumbrqfnumbr
p2223
aVshowroom
p2224
aS'showr'
p2225
aVargu
p2226
aVargh
p2227
aVrebel
p2228
aVcard
p2229
aVcare
p2230
aVcoulda
p2231
aVstapati
p2232
aVbritish
p2233
aVhonest
p2234
aVperson
p2235
aVprescripiton
p2236
aVlambda
p2237
aVblind
p2238
aVdirectli
p2239
aVmadam
p2240
aVrinu
p2241
aVzac
p2242
aVnattil
p2243
aVxy
p2244
aS'ring'
p2245
aVhalla
p2246
aVtomorrow
p2247
aVxt
p2248
aVsize
p2249
aVsheet
p2250
aVsilent
p2251
aVbookmark
p2252
aVcaught
p2253
aVeachoth
p2254
aVsilenc
p2255
aVbootydeli
p2256
aVbreez
p2257
aS'pathaya'
p2258
aVfriend
p2259
aVespeci
p2260
aVbraini
p2261
aVmostli
p2262
aVshitin
p2263
aVflirtparti
p2264
aVloverboy
p2265
aVgobi
p2266
aVnumbraj
p2267
aVnumbram
p2268
aVhsbc
p2269
aVoptimist
p2270
aVdontignor
p2271
aS'browser'
p2272
aVangel
p2273
aVnumbrper
p2274
aVpremier
p2275
aVanywher
p2276
aVslap
p2277
aVloko
p2278
aVdeliv
p2279
aVbreakfast
p2280
aS'engin'
p2281
aVbegin
p2282
aVimportantli
p2283
aVanythi
p2284
aVprice
p2285
aVnrnumbr
p2286
aVcrazyin
p2287
aS'mrt'
p2288
aVegg
p2289
aVtooth
p2290
aVmeanwhil
p2291
aVmre
p2292
aVdiaper
p2293
aVsknumbr
p2294
aVfletcher
p2295
aVfifth
p2296
aVfifti
p2297
aVcallfreefon
p2298
aVratio
p2299
aVstair
p2300
aVjolt
p2301
aVspacebuck
p2302
aVporridg
p2303
aVsathi
p2304
aVtruli
p2305
aVhostil
p2306
aVwcnumbrn
p2307
aVamanda
p2308
aS'husband'
p2309
aVclosingdatenumbr
p2310
aVconcert
p2311
aVnumbrwinawk
p2312
aVerot
p2313
aS'asleep'
p2314
aVsport
p2315
aVconcern
p2316
aVnumbrtim
p2317
aVeppolum
p2318
aVannonc
p2319
aVnauseou
p2320
aVimport
p2321
aVblame
p2322
aVupcharg
p2323
aVmone
p2324
aVnownumbr
p2325
aVmono
p2326
aVvoicemail
p2327
aVnearbi
p2328
aVizzit
p2329
aVevict
p2330
aVnumbrovernumbr
p2331
aVphbnumbr
p2332
aVcamcord
p2333
aVpreschoolco
p2334
aVpongal
p2335
aVsmsreward
p2336
aVclarif
p2337
aVwerebor
p2338
aVpayednumbrday
p2339
aVcusoon
p2340
aS'maggi'
p2341
aVbout
p2342
aVanswerin
p2343
aVeir
p2344
aVthesi
p2345
aVwrnog
p2346
aVmight
p2347
aVchinatown
p2348
aVlunchtim
p2349
aVnumbrxxxxxxxxx
p2350
aVsopha
p2351
aVyi
p2352
aVsoil
p2353
aVshampain
p2354
aVhenc
p2355
aVworri
p2356
aVgloriou
p2357
aVwestlif
p2358
aVaudiit
p2359
aVunderdtand
p2360
aVdevelop
p2361
aVetc
p2362
aVmedic
p2363
aVlitr
p2364
aVfood
p2365
aVdocument
p2366
aVfinish
p2367
aVsomeon
p2368
aVtreadmil
p2369
aVfruit
p2370
aVpoboxnumbrnnumbrtfnumbr
p2371
aS'theater'
p2372
aVgotani
p2373
aVshortbreak
p2374
aVbreezi
p2375
aVtaxi
p2376
aVsaristar
p2377
aVtobe
p2378
aVijust
p2379
aVtouch
p2380
aVspeed
p2381
aVtaxt
p2382
aVbnumbr
p2383
aVversu
p2384
aVdeath
p2385
aVeurop
p2386
aVidentif
p2387
aVfuner
p2388
aVswim
p2389
aVamk
p2390
aVread
p2391
aVladi
p2392
aVmadstini
p2393
aS'lccltd'
p2394
aVamp
p2395
aVpsp
p2396
aVamt
p2397
aVblackberri
p2398
aVpostcard
p2399
aVganesh
p2400
aVbenefit
p2401
aS'erutupalam'
p2402
aVyoudo
p2403
aVwlcome
p2404
aVwheat
p2405
aVasap
p2406
aVstarshin
p2407
aVtuition
p2408
aVhectic
p2409
aVthrow
p2410
aVpatent
p2411
aVswnumbrss
p2412
aVsri
p2413
aVchop
p2414
aVdegre
p2415
aVjourney
p2416
aVsrt
p2417
aVheater
p2418
aVyoui
p2419
aVwuldnt
p2420
aVnurs
p2421
aVyour
p2422
aVmoneysymb
p2423
aVlog
p2424
aVarea
p2425
aVloo
p2426
aVlol
p2427
aVlor
p2428
aVstart
p2429
aVstarv
p2430
aVlov
p2431
aVlow
p2432
aS'lot'
p2433
aVlou
p2434
aVsomerset
p2435
aVchinki
p2436
aVbillion
p2437
aVwarwick
p2438
aVurfeel
p2439
aS'hire'
p2440
aVfraud
p2441
aVtonex
p2442
aVsleepi
p2443
aVsunroof
p2444
aVreppurcuss
p2445
aVtahan
p2446
aVbollox
p2447
aS'sundayish'
p2448
aVevent
p2449
aVhousework
p2450
aVvalid
p2451
aVyor
p2452
aVpoor
p2453
aVpoop
p2454
aVmoneysymbnumbrperweeksub
p2455
aVcountinlot
p2456
aVpear
p2457
aVmnumbrbp
p2458
aVcocksuck
p2459
aVpeak
p2460
aVcoveragd
p2461
aVpeac
p2462
aVpool
p2463
aVsuitem
p2464
aVreduc
p2465
aVphilosoph
p2466
aVcarlin
p2467
aVcruisin
p2468
aVmessi
p2469
aVmonth
p2470
aVibor
p2471
aVgymnast
p2472
aVsurya
p2473
aVwml
p2474
aVgyna
p2475
aVanythingtomorrow
p2476
aVipnumbr
p2477
aVmittelschmertz
p2478
aVheaven
p2479
aVdoinat
p2480
aVanal
p2481
aVdimens
p2482
aVskin
p2483
aVramaduth
p2484
aVvelacheri
p2485
aS'harder'
p2486
aVhamper
p2487
aVnumbrfil
p2488
aVyowif
p2489
aVnang
p2490
aVrecd
p2491
aViraq
p2492
aVahead
p2493
aVreason
p2494
aVamount
p2495
aVarent
p2496
aVdizzamn
p2497
aVcreepi
p2498
aVmedicin
p2499
aVhuim
p2500
aVask
p2501
aVfamili
p2502
aVash
p2503
aVpolyph
p2504
aVmassag
p2505
aVnimbomson
p2506
aVtaken
p2507
aVwebnumbrmobil
p2508
aVmacha
p2509
aVlush
p2510
aVhurri
p2511
aVbroke
p2512
aVoblivi
p2513
aVhistori
p2514
aVarchiv
p2515
aVnino
p2516
aValbi
p2517
aVaftr
p2518
aS'cttergg'
p2519
aVphrase
p2520
aVfamamu
p2521
aVlrg
p2522
aVsipix
p2523
aVanoth
p2524
aVspreadsheet
p2525
aVreject
p2526
aVfrndshp
p2527
aVfp
p2528
aVfr
p2529
aVft
p2530
aVrude
p2531
aVrudi
p2532
aVcompulsori
p2533
aVfa
p2534
aVfb
p2535
aVfm
p2536
aVfo
p2537
aVlfnumbr
p2538
aVnumbrh
p2539
aVnumbri
p2540
aVfreenumbrday
p2541
aVnumbrm
p2542
aVnumbrb
p2543
aVnumbrc
p2544
aVnumbra
p2545
aVnumbrf
p2546
aVnumbrg
p2547
aVnumbrd
p2548
aVnumbrz
p2549
aVego
p2550
aVdread
p2551
aVbugi
p2552
aVnumbrp
p2553
aVdream
p2554
aVnumbrw
p2555
aVnumbrt
p2556
aVnumbru
p2557
aVphotoshop
p2558
aVhelp
p2559
aVbcum
p2560
aVerod
p2561
aVsooo
p2562
aVsoon
p2563
aVheld
p2564
aVmusthu
p2565
aVhell
p2566
aVchatlin
p2567
aVuve
p2568
aVvouchnumbrm
p2569
aS'nordstrom'
p2570
aVheron
p2571
aS'feel'
p2572
aVknumbr
p2573
aVkaypoh
p2574
aVjustthought
p2575
aVdelici
p2576
aVzyada
p2577
aVfool
p2578
aVym
p2579
aVyo
p2580
aVya
p2581
aVsentenc
p2582
aVye
p2583
aVrwm
p2584
aVvomit
p2585
aS'cer'
p2586
aVfoot
p2587
aVyr
p2588
aVradiat
p2589
aVbless
p2590
aViff
p2591
aVninumbr
p2592
aVasusu
p2593
aVsquishi
p2594
aVummmmmaah
p2595
aVprais
p2596
aVheavi
p2597
aVball
p2598
aVbeyond
p2599
aVtodo
p2600
aVgandhipuram
p2601
aVsinco
p2602
aVsafeti
p2603
aVasjesu
p2604
aVinterfu
p2605
aVornumbroptout
p2606
aVpublish
p2607
aVjolli
p2608
aVass
p2609
aVvasai
p2610
aS'textin'
p2611
aVasp
p2612
aVasu
p2613
aVbasq
p2614
aVsnuggl
p2615
aVpub
p2616
aVasa
p2617
aVbase
p2618
aVhousew
p2619
aVput
p2620
aS'earliest'
p2621
aS'bash'
p2622
aVnumbrmsg
p2623
aVvomitin
p2624
aVcurtsey
p2625
aVrpnumbr
p2626
aVamerican
p2627
aVsyria
p2628
aVlifetim
p2629
aVmise
p2630
aVnumbrgbp
p2631
aVriver
p2632
aVmist
p2633
aVmiss
p2634
aVvilla
p2635
aVstation
p2636
aVvirgil
p2637
aVnigeria
p2638
aVrawr
p2639
aVbehind
p2640
aVasshol
p2641
aVjordan
p2642
aVstd
p2643
aVposibl
p2644
aVsth
p2645
aVstu
p2646
aVbridg
p2647
aVkindli
p2648
aVstr
p2649
aVtoward
p2650
aVrandomli
p2651
aVwasnt
p2652
aVhallaq
p2653
aVformoneysymbnumbr
p2654
aVnumbrend
p2655
aVjuici
p2656
aVlie
p2657
aS'lib'
p2658
aVdeviousbitch
p2659
aVlil
p2660
aVlim
p2661
aVcave
p2662
aVscotland
p2663
aVlik
p2664
aVlit
p2665
aVteju
p2666
aVunintent
p2667
aVlip
p2668
aVuseless
p2669
aVwate
p2670
aVeaten
p2671
aVwatt
p2672
aS'kay'
p2673
aS'mack'
p2674
aVwatr
p2675
aVclear
p2676
aVsalari
p2677
aVclean
p2678
aVusual
p2679
aVawesom
p2680
aVwhenevr
p2681
aVrandi
p2682
aVpretti
p2683
aVparanoid
p2684
aVfromwrk
p2685
aVgnumbrga
p2686
aS'callnumbr'
p2687
aVslaaaaav
p2688
aVhype
p2689
aVx
aVhiphop
p2690
aVseventeen
p2691
aS'corrct'
p2692
aVplough
p2693
aVclose
p2694
aVrgnumbr
p2695
aValuabl
p2696
aVonword
p2697
aVwkend
p2698
aVwot
p2699
aVwow
p2700
aVparticip
p2701
aVsariyag
p2702
aVwoo
p2703
aVystrday
p2704
aVwkent
p2705
aVpiss
p2706
aVmycal
p2707
aVleastnumbrtim
p2708
aVnervou
p2709
aVbuzi
p2710
aVadp
p2711
aVmega
p2712
aVanot
p2713
aVpace
p2714
aVnumbropt
p2715
aVminnaminungint
p2716
aVboldnumbr
p2717
aVmitsak
p2718
aVlinux
p2719
aVbatteri
p2720
aVforgiv
p2721
aVsurnam
p2722
aVwer
p2723
aVstamp
p2724
aVempti
p2725
aVenuff
p2726
aVdamn
p2727
aVanthoni
p2728
aVimag
p2729
aVwet
p2730
aVpudunga
p2731
aVimat
p2732
aVlool
p2733
aVntimat
p2734
aViyo
p2735
aVnumbrwinnumbrppmxnumbr
p2736
aVwheellock
p2737
aVsmart
p2738
aVvideosound
p2739
aVloos
p2740
aVpack
p2741
aVgimm
p2742
aVreadi
p2743
aVskype
p2744
aVgrant
p2745
aVjeetey
p2746
aVbelong
p2747
aVkaro
p2748
aVshag
p2749
aS'grand'
p2750
aVshah
p2751
aVinmind
p2752
aVdime
p2753
aVtxtin
p2754
aVbanter
p2755
aVoptin
p2756
aVfatti
p2757
aVcyst
p2758
aVspecialis
p2759
aVmobi
p2760
aVrealiz
p2761
aVfive
p2762
aVquiteamuz
p2763
aVchore
p2764
aVchord
p2765
aVpassword
p2766
aVhavin
p2767
aVsubsequ
p2768
aS'march'
p2769
aVdearli
p2770
aVroommat
p2771
aVgamb
p2772
aVcrickit
p2773
aVgirlfrnd
p2774
aVsuccess
p2775
aVsignal
p2776
aVtoyota
p2777
aVjunna
p2778
aVtheacus
p2779
aVeek
p2780
aVvibrant
p2781
aVcruis
p2782
aVdonno
p2783
aVlingeri
p2784
aVlipo
p2785
aS'urgent'
p2786
aVmmmmm
p2787
aVheehe
p2788
aVqatar
p2789
aVchocol
p2790
aVfoley
p2791
aVrun
p2792
aS'marandratha'
p2793
aVrum
p2794
aVrub
p2795
aS'infra'
p2796
aVstep
p2797
aVabroad
p2798
aVshine
p2799
aVexet
p2800
aVidu
p2801
aVshini
p2802
aVidp
p2803
aVidk
p2804
aVitalian
p2805
aVidc
p2806
aVblock
p2807
aVyoyyooo
p2808
aVvisit
p2809
aVwithin
p2810
aVfredericksburg
p2811
aVaburo
p2812
aVitriednumbrtel
p2813
aVmaangalyam
p2814
aVtrackmarqu
p2815
aVmoseley
p2816
aVproperli
p2817
aVllspeak
p2818
aVpert
p2819
aVpuzzel
p2820
aVbettersn
p2821
aVdull
p2822
aVinfo
p2823
aVfrnd
p2824
aVtrishul
p2825
aVfrnt
p2826
aVprobpop
p2827
aVlectur
p2828
aVhaiz
p2829
aVmsging
p2830
aVcallertun
p2831
aVnag
p2832
aVtitl
p2833
aVnah
p2834
aS'ranjith'
p2835
aVnan
p2836
aVvilikkam
p2837
aVvargu
p2838
aVnav
p2839
aVnat
p2840
aVhollalat
p2841
aVdraw
p2842
aVtongu
p2843
aVsmiley
p2844
aS'bognor'
p2845
aVkort
p2846
aVgower
p2847
aVe
aVdvd
p2848
aVbelliger
p2849
aVtsandc
p2850
aVsvc
p2851
aVstdtxtrate
p2852
aVbribe
p2853
aVcribb
p2854
aVgv
p2855
aVgt
p2856
aVkath
p2857
aS'gf'
p2858
aVge
p2859
aVgd
p2860
aVga
p2861
aVgo
p2862
aVgn
p2863
aVgm
p2864
aVkate
p2865
aVsugardad
p2866
aS'onum'
p2867
aVchex
p2868
aVcomputerless
p2869
aS'oclock'
p2870
aVaris
p2871
aVfone
p2872
aVjuliana
p2873
aVsausag
p2874
aVmaat
p2875
aVwave
p2876
aVfacebook
p2877
aVanswr
p2878
aVkitti
p2879
aVolag
p2880
aVgender
p2881
aVbutton
p2882
aVmichael
p2883
aVstifl
p2884
aS'ryan'
p2885
aVhomeown
p2886
aVsoul
p2887
aVjump
p2888
aVbooti
p2889
aS'download'
p2890
aVclick
p2891
aVpoke
p2892
aVsoup
p2893
aVcell
p2894
aVnumbrnhit
p2895
aVbecoz
p2896
aVweirdi
p2897
aS'weirdo'
p2898
aVbecom
p2899
aVconvert
p2900
aVconvers
p2901
aVsitll
p2902
aVgent
p2903
aVgenu
p2904
aVmadnumbr
p2905
aVchang
p2906
aVgene
p2907
aVchanc
p2908
aVeckankar
p2909
aVwif
p2910
aVwid
p2911
aVclark
p2912
aVdanger
p2913
aVwin
p2914
aS'wil'
p2915
aVwiv
p2916
aVwit
p2917
aVcloud
p2918
aVcrap
p2919
aVimplic
p2920
aVcamera
p2921
aVcrab
p2922
aVcram
p2923
aVexpiri
p2924
aVokmail
p2925
aVfridg
p2926
aS'priya'
p2927
aVevrydi
p2928
aVgoodeven
p2929
aVretriev
p2930
aVtscsnumbrwinawk
p2931
aVsalad
p2932
aVride
p2933
aVmokka
p2934
aVsalam
p2935
aVkettoda
p2936
aVtoclaim
p2937
aVcontrol
p2938
aVsudn
p2939
aS'waaaat'
p2940
aVhalloween
p2941
aVonbu
p2942
aVskirt
p2943
aVnumbrfew
p2944
aVgeorg
p2945
aVpurs
p2946
aS'farm'
p2947
aVnolin
p2948
aViren
p2949
aVfart
p2950
aVinterviw
p2951
aVscool
p2952
aVnumbrxmoneysymbnumbrpw
p2953
aVibiza
p2954
aVprayr
p2955
aVadsens
p2956
aVmaaaan
p2957
aVblake
p2958
aVconsensu
p2959
aVdancin
p2960
aVpura
p2961
aVboltblu
p2962
aVarngd
p2963
aVcherthala
p2964
aVofsi
p2965
aVpixel
p2966
aVhandl
p2967
aS'auto'
p2968
aVsweeti
p2969
aVdudett
p2970
aVemcnumbr
p2971
aVfront
p2972
aVsomewher
p2973
aVslide
p2974
aS'mode'
p2975
aVmodl
p2976
aVsuprman
p2977
aVdismissi
p2978
aValertfrom
p2979
aVhlp
p2980
aVdrizzl
p2981
aVspecial
p2982
aVreboot
p2983
aVstayin
p2984
aVsecretli
p2985
aVpendent
p2986
aVwick
p2987
aVspot
p2988
aVadvisor
p2989
aVprincess
p2990
aVflorida
p2991
aVmac
p2992
aVkeep
p2993
aS'keen'
p2994
aVwellda
p2995
aVlaundri
p2996
aVannoyin
p2997
aS'shrek'
p2998
aVqualiti
p2999
aVcramp
p3000
aVhrishi
p3001
aS'bitch'
p3002
aVcheckmat
p3003
aVhehe
p3004
aVattach
p3005
aVattack
p3006
aVprivaci
p3007
aVfinal
p3008
aVprone
p3009
aVpanti
p3010
aVcraziest
p3011
aVpunish
p3012
aVdelux
p3013
aVbiggest
p3014
aVcya
p3015
aVlistn
p3016
aVsumthin
p3017
aVultimatum
p3018
aVben
p3019
aVbec
p3020
aS'macleran'
p3021
aVbeg
p3022
aVbed
p3023
aVard
p3024
aVbet
p3025
aVexhibit
p3026
aVdeliveri
p3027
aVforgt
p3028
aVlightli
p3029
aVtabl
p3030
aVneed
p3031
aVrecharg
p3032
aVtxtnumbr
p3033
aVmango
p3034
aVnumbreva
p3035
aVso
p3036
aVsingl
p3037
aVgamestar
p3038
aVstopcost
p3039
aVaww
p3040
aVwannatel
p3041
aVarcad
p3042
aVfuell
p3043
aVsneham
p3044
aVure
p3045
aVplumber
p3046
aS'url'
p3047
aVurn
p3048
aVupset
p3049
aVsf
p3050
aVinde
p3051
aVbcmnumbrwcnumbrnnumbrxx
p3052
aVcrore
p3053
aVwatchng
p3054
aVaffair
p3055
aVskillgam
p3056
aVanyway
p3057
aVmiwa
p3058
aVmolest
p3059
aVhabba
p3060
aVtire
p3061
aVwinner
p3062
aVbrighten
p3063
aVenvi
p3064
aVarabian
p3065
aVforeg
p3066
aVedha
p3067
aVgopalettan
p3068
aVpist
p3069
aVkiefer
p3070
aVbuyer
p3071
aVefreefon
p3072
aVborin
p3073
aVendless
p3074
aVgray
p3075
aVshu
p3076
aVtobacco
p3077
aS'sha'
p3078
aS'shb'
p3079
aVshd
p3080
aVshe
p3081
aVgran
p3082
aVcontain
p3083
aVshi
p3084
aVgrab
p3085
aVfootbl
p3086
aVshake
p3087
aVfeelingood
p3088
aVprizeswith
p3089
aS'frndship'
p3090
aVstatu
p3091
aVluv
p3092
aVlux
p3093
aVgoigng
p3094
aVstate
p3095
aVtens
p3096
aVneither
p3097
aVluk
p3098
aVlul
p3099
aVoveabl
p3100
aVken
p3101
aVmerri
p3102
aVnumbrstnumbrterm
p3103
aVkey
p3104
aVmaga
p3105
aVsmsco
p3106
aVshitstorm
p3107
aVstudyn
p3108
aVadmin
p3109
aVjia
p3110
aVadmit
p3111
aVcongrat
p3112
aVadmir
p3113
aVami
p3114
aVjersey
p3115
aVtuesday
p3116
aVorig
p3117
aVpoem
p3118
aVsari
p3119
aVslowli
p3120
aVsara
p3121
aVyar
p3122
aVyam
p3123
aVyan
p3124
aVtreat
p3125
aVpoet
p3126
aVtextbuddi
p3127
aVpie
p3128
aVmail
p3129
aVfurnitur
p3130
aVingredi
p3131
aVbahama
p3132
aVnumbryt
p3133
aVgucci
p3134
aVnumbryf
p3135
aS'carpark'
p3136
aVengag
p3137
aVwkg
p3138
aVrevis
p3139
aVlambu
p3140
aVscienc
p3141
aVwelcom
p3142
aVtheplac
p3143
aVminmobsmorelkpoboxnumbrhpnumbrfl
p3144
aVparti
p3145
aS'balloon'
p3146
aVpayasam
p3147
aVpshew
p3148
aVdrugdeal
p3149
aVforgotten
p3150
aVeffect
p3151
aS'sooner'
p3152
aVbhaskar
p3153
aVspree
p3154
aVnation
p3155
aVdrivbi
p3156
aVashley
p3157
aS'prakesh'
p3158
aVwell
p3159
aVwelp
p3160
aVdistanc
p3161
aVbestnumbr
p3162
aVcuck
p3163
aS'dose'
p3164
aVondu
p3165
aVheadin
p3166
aVskill
p3167
aVsleepwel
p3168
aVovul
p3169
aVsnicker
p3170
aVtxtauction
p3171
aVlapdanc
p3172
aS'yeesh'
p3173
aVkick
p3174
aVfate
p3175
aS'lucyxx'
p3176
aVeuronumbr
p3177
aVburden
p3178
aVloss
p3179
aVwnumbrwq
p3180
aVlost
p3181
aVwnumbrwx
p3182
aVornumbrstoptxt
p3183
aVnecessari
p3184
aVallalo
p3185
aVdresser
p3186
aVpage
p3187
aVlager
p3188
aVtwitter
p3189
aVpetey
p3190
aVcontin
p3191
aVasda
p3192
aVhome
p3193
aVsplle
p3194
aVlibrari
p3195
aVwendi
p3196
aVnumbrchannel
p3197
aVoutgo
p3198
aS'ps'
p3199
aVfightng
p3200
aVbeehoon
p3201
aVspatula
p3202
aVswayz
p3203
aS'quarter'
p3204
aVfreedom
p3205
aVpooja
p3206
aVmofo
p3207
aVunbreak
p3208
aVgoodfriend
p3209
aVtortur
p3210
aVdengra
p3211
aVinner
p3212
aVcricket
p3213
aVnorth
p3214
aVhr
p3215
aS'hp'
p3216
aVhv
p3217
aVhw
p3218
aVhu
p3219
aVhi
p3220
aVho
p3221
aVhl
p3222
aVhm
p3223
aVhighest
p3224
aVeat
p3225
aVhe
p3226
aVpansi
p3227
aVrumbl
p3228
aVswt
p3229
aVcruel
p3230
aVlimit
p3231
aVwoke
p3232
aVjuswok
p3233
aVdhoni
p3234
aVdisplay
p3235
aVevalu
p3236
aVnookii
p3237
aVnumbrkbsubject
p3238
aVhppnss
p3239
aVsolihul
p3240
aVfutur
p3241
aVrememb
p3242
aVtalkin
p3243
aVwhilltak
p3244
aVnumbrstchoic
p3245
aVstar
p3246
aVstay
p3247
aVctla
p3248
aVappoint
p3249
aVbcm
p3250
aVdontmatt
p3251
aVbck
p3252
aVshija
p3253
aVportion
p3254
aVbcz
p3255
aVdecemb
p3256
aVambrith
p3257
aVsimpson
p3258
aVliver
p3259
aVsimonwatsonnumbr
p3260
aVnottingham
p3261
aVasian
p3262
aVandro
p3263
aVwhose
p3264
aVsorri
p3265
aVswan
p3266
aVsweetest
p3267
aVpresnt
p3268
aVswat
p3269
aVswap
p3270
aVsway
p3271
aVchennai
p3272
aVkudi
p3273
aVvoic
p3274
aVgover
p3275
aVneway
p3276
aVsmack
p3277
aVaffect
p3278
aVpoorli
p3279
aVlook
p3280
aVkeluviri
p3281
aVcrave
p3282
aVnumbrwu
p3283
aVill
p3284
aVmonster
p3285
aVeven
p3286
aVwreck
p3287
aVneg
p3288
aVned
p3289
aVhotmix
p3290
aVeveb
p3291
aVtranscrib
p3292
aVasia
p3293
aS'evey'
p3294
aVnew
p3295
aS'net'
p3296
aVever
p3297
aS'mee'
p3298
aVmed
p3299
aVmeg
p3300
aVoru
p3301
aVnanni
p3302
aVmel
p3303
aVmen
p3304
aVmei
p3305
aS'meh'
p3306
aVmet
p3307
aVgonnamissu
p3308
aVnokianumbr
p3309
aVcthen
p3310
aVjamz
p3311
aVdri
p3312
aVcredit
p3313
aVdrm
p3314
aVcalifornia
p3315
aVnumbrcncl
p3316
aVfell
p3317
aVaveng
p3318
aVmecaus
p3319
aVaclnumbrpm
p3320
aVavenu
p3321
aVavent
p3322
aVmoral
p3323
aVmmmmmmm
p3324
aVore
p3325
aVnumbrwk
p3326
aVcali
p3327
aVedward
p3328
aVcall
p3329
aVcalm
p3330
aVtype
p3331
aVtell
p3332
aS'oscar'
p3333
aVunderwear
p3334
aVwarn
p3335
aVwarm
p3336
aVgrandfath
p3337
aVadult
p3338
aVadewal
p3339
aVbiatch
p3340
aVreltnship
p3341
aVroom
p3342
aVsmeon
p3343
aVendof
p3344
aVspec
p3345
aVendow
p3346
aVdefer
p3347
aVvodka
p3348
aVimmunis
p3349
aVfresher
p3350
aVgive
p3351
aVpunj
p3352
aVhoney
p3353
aVranju
p3354
aVquot
p3355
aVpolic
p3356
aVjeevithathil
p3357
aS'answer'
p3358
aVconfid
p3359
aVovr
p3360
aVabdomen
p3361
aVlondn
p3362
aVpersonnumbrdi
p3363
aVmobilesvari
p3364
aVmisfit
p3365
aVloyalti
p3366
aVattempt
p3367
aVnicki
p3368
aVmaintain
p3369
aVfifa
p3370
aVdiddi
p3371
aVdeck
p3372
aVcomnumbrwinnumbrppmxnumbragenumbr
p3373
aVbusetop
p3374
aVsenthil
p3375
aVwun
p3376
aVgentl
p3377
aVbetter
p3378
aVinconsider
p3379
aVanim
p3380
aS'byatch'
p3381
aVpromin
p3382
aVworkout
p3383
aVafew
p3384
aVpromis
p3385
aVmeat
p3386
aVbonu
p3387
aVroast
p3388
aVhanumanji
p3389
aVwent
p3390
aVbong
p3391
aVside
p3392
aVbone
p3393
aVmean
p3394
aVsqueeeeez
p3395
aVchillaxin
p3396
aVskint
p3397
aS'vava'
p3398
aVtaught
p3399
aVforgot
p3400
aVdawn
p3401
aVextract
p3402
aVexmpel
p3403
aVcrucial
p3404
aVcontent
p3405
aVkeralacircl
p3406
aVmanda
p3407
aVreader
p3408
aVogunrind
p3409
aVmandi
p3410
aS'linear'
p3411
aS'cutest'
p3412
aVsituat
p3413
aVsunshin
p3414
aVisv
p3415
aVish
p3416
aVtriumph
p3417
aViphon
p3418
aVloud
p3419
aS'fuckin'
p3420
aVuser
p3421
aVhoop
p3422
aVhook
p3423
aVunlik
p3424
aVnaughti
p3425
aVagre
p3426
aVjjc
p3427
aVsometim
p3428
aVgirli
p3429
aVoutag
p3430
aVupdate_now
p3431
aVgym
p3432
aVdigi
p3433
aVsomewhat
p3434
aVhelen
p3435
aVsymptom
p3436
aVsilli
p3437
aVkeyword
p3438
aVexorcist
p3439
aVmatter
p3440
aVshsex
p3441
aS'guessin'
p3442
aVmini
p3443
aVtelli
p3444
aVmina
p3445
aVsexychat
p3446
aVmind
p3447
aS'mine'
p3448
aVseed
p3449
aVseen
p3450
aVseem
p3451
aVmint
p3452
aVminu
p3453
aVhoodi
p3454
aValibi
p3455
aVchest
p3456
aVchess
p3457
aVmarin
p3458
aVregular
p3459
aVmelnit
p3460
aVoffdam
p3461
aVjustfound
p3462
aVtradit
p3463
aVfalconerf
p3464
aVmaretar
p3465
aVdom
p3466
aVdob
p3467
aVdoc
p3468
aVdog
p3469
aVbreather
p3470
aVtextcomp
p3471
aVmushi
p3472
aVscotch
p3473
aVdot
p3474
aVvisitor
p3475
aVringtonek
p3476
aVxxxmobilemovieclub
p3477
aVdespit
p3478
aVwtlp
p3479
aS'explain'
p3480
aVsugar
p3481
aVacnt
p3482
aVmustprovid
p3483
aVdoubletxt
p3484
aVshhhhh
p3485
aS'blur'
p3486
aS'stop'
p3487
aVcoast
p3488
aVboxnumbrnnumbrqp
p3489
aVparachut
p3490
aVbat
p3491
aVbar
p3492
aVeveryboy
p3493
aVsacrific
p3494
aVbay
p3495
aS'bag'
p3496
aVbad
p3497
aVbac
p3498
aVban
p3499
aVbao
p3500
aVbam
p3501
aS'bak'
p3502
aVrington
p3503
aVwitout
p3504
aVpocay
p3505
aVsubject
p3506
aVpete
p3507
aVsaid
p3508
aVsorta
p3509
aVsankranti
p3510
aVattribut
p3511
aVomg
p3512
aVoffcampu
p3513
aVvitamin
p3514
aVlazi
p3515
aVomw
p3516
aVrimac
p3517
aS'cousin'
p3518
aVtextpod
p3519
aVgpr
p3520
aS'finishd'
p3521
aVnumbrxxxxxx
p3522
aVfne
p3523
aVmobcudb
p3524
aVuni
p3525
aVetlp
p3526
aVheight
p3527
aVreciev
p3528
aVnumbrbnumbranumbrecefnumbrffnumbr
p3529
aVthree
p3530
aVvarma
p3531
aVaskd
p3532
aVunsubscrib
p3533
aVinterest
p3534
aVbasic
p3535
aVriley
p3536
aVthrew
p3537
aVundrstndng
p3538
aVsooooo
p3539
aVmca
p3540
aS'jetton'
p3541
aVkote
p3542
aVphyhcmk
p3543
aVscotsman
p3544
aS'tank'
p3545
aVservic
p3546
aVslp
p3547
aVquiz
p3548
aVnear
p3549
aVslo
p3550
aVoccas
p3551
aVdificult
p3552
aVseven
p3553
aViz
p3554
aVfakey
p3555
aViq
p3556
aVip
p3557
aVtheatr
p3558
aS'nutter'
p3559
aVshame
p3560
aVcant
p3561
aVim
p3562
aS'il'
p3563
aVjesu
p3564
aVia
p3565
aVic
p3566
aS'ie'
p3567
aVid
p3568
aVsever
p3569
aS'grown'
p3570
aVbelli
p3571
aVmaki
p3572
aVreceiv
p3573
aVparish
p3574
aVmake
p3575
aVternal
p3576
aS'ello'
p3577
aVoverh
p3578
aVkip
p3579
aVovera
p3580
aVkit
p3581
aVbloomberg
p3582
aVaka
p3583
aVkid
p3584
aVgame
p3585
aVleft
p3586
aVyeh
p3587
aVidentifi
p3588
aVyen
p3589
aVpoboxnumbronumbrwnumbrwq
p3590
aVhuman
p3591
aVyep
p3592
aVyer
p3593
aVyet
p3594
aVlanguag
p3595
aVfranxx
p3596
aVroyal
p3597
aVsave
p3598
aVadress
p3599
aVopt
p3600
aVapplic
p3601
aVopp
p3602
aVmileag
p3603
aVtmrw
p3604
aVdiscreet
p3605
aVnumbruz
p3606
aVelabor
p3607
aVgovt
p3608
aVathlet
p3609
aVshoulder
p3610
aVfranyxxxxx
p3611
aVmanual
p3612
aVdigniti
p3613
aS'www'
p3614
aVdeal
p3615
aVmaxim
p3616
aS'dead'
p3617
aVresolv
p3618
aVintern
p3619
aVmoneysymbnumbrpm
p3620
aS'dear'
p3621
aVhhahhaahahah
p3622
aVbold
p3623
aVburn
p3624
aVpromot
p3625
aVsuper
p3626
aVoreo
p3627
aVmeow
p3628
aVsimul
p3629
aVafternoon
p3630
aVcommit
p3631
aVxxsp
p3632
aVtelephon
p3633
aVlili
p3634
aVnumbramoneysymbnetwork
p3635
aVdown
p3636
aS'slurp'
p3637
aVjenn
p3638
aVcardiff
p3639
aVtirunelvali
p3640
aVimin
p3641
aVfraction
p3642
aVihav
p3643
aVanalysi
p3644
aVform
p3645
aVforc
p3646
aVthinkthi
p3647
aVbluetoothhdset
p3648
aVshuhui
p3649
aVrealnumbr
p3650
aVparkin
p3651
aS'numbrbold'
p3652
aVhappen
p3653
aVdaddi
p3654
aVcustcar
p3655
aVtemper
p3656
aVbelovd
p3657
aVfeatur
p3658
aVclassic
p3659
aVtoss
p3660
aVshivratri
p3661
aVsale
p3662
aVgland
p3663
aVship
p3664
aVshit
p3665
aVsticki
p3666
aS'holla'
p3667
aVsmidgin
p3668
aVzhong
p3669
aVexcel
p3670
aVhangin
p3671
aVaunti
p3672
aVunlimit
p3673
aVmatur
p3674
aVxclusiv
p3675
aVifink
p3676
aVfelt
p3677
aVdiet
p3678
aVtirunelvai
p3679
aVusml
p3680
aVweekend
p3681
aVwomdarful
p3682
aVfemal
p3683
aVpotato
p3684
aVjacket
p3685
aVgrownup
p3686
aVignor
p3687
aVteeth
p3688
aVtoppoli
p3689
aVdaili
p3690
aVskip
p3691
aS'eldest'
p3692
aVinvent
p3693
aVmile
p3694
aVmila
p3695
aVlauri
p3696
aVkothi
p3697
aVmilk
p3698
aVdepend
p3699
aVfather
p3700
aVyummi
p3701
aVswoop
p3702
aVchequ
p3703
aVstring
p3704
aVapeshit
p3705
aVdramastorm
p3706
aVworc
p3707
aVma
p3708
aVunni
p3709
aS'din'
p3710
aVdie
p3711
aVhenri
p3712
aVsomon
p3713
aViter
p3714
aVsignin
p3715
aVitem
p3716
aVmsgrcvd
p3717
aVdip
p3718
aVround
p3719
aVshave
p3720
aVcamri
p3721
aVthangam
p3722
aV____
p3723
aVtocal
p3724
aVafghanistan
p3725
aVthenumbrth
p3726
aVfavour
p3727
aVummma
p3728
aS'lennon'
p3729
aVdrunkard
p3730
aVaddi
p3731
aVujhhhhhhh
p3732
aVbloke
p3733
aVaccordin
p3734
aVpushbutton
p3735
aVfrench
p3736
aVcoincid
p3737
aVnatalja
p3738
aVwait
p3739
aVbox
p3740
aVboy
p3741
aVgotmarri
p3742
aVinvit
p3743
aVbot
p3744
aVmerememberin
p3745
aVboo
p3746
aVextrem
p3747
aVbob
p3748
aVminecraft
p3749
aVgetnumbrannumbrth
p3750
aVelect
p3751
aVtaunton
p3752
aVmodul
p3753
aVnumbrhour
p3754
aVnumbrmonth
p3755
aVdysentri
p3756
aVayo
p3757
aVayn
p3758
aVperf
p3759
aVsake
p3760
aVunivers
p3761
aVdude
p3762
aVjaykwon
p3763
aVeverybodi
p3764
aVahhh
p3765
aS'dict'
p3766
aVthru
p3767
aVnumbrgot
p3768
aVfaith
p3769
aVooh
p3770
aVoop
p3771
aVfuckinnic
p3772
aVuniqu
p3773
aVfli
p3774
aVwallet
p3775
aVimped
p3776
aVclaim
p3777
aVexorc
p3778
aVplaza
p3779
aVfavourit
p3780
aVettan
p3781
aVpredict
p3782
aVfuck
p3783
aVagent
p3784
aVcrazi
p3785
aVagenc
p3786
aVclair
p3787
aVpink
p3788
aVnevil
p3789
aVparco
p3790
aVnyt
p3791
aVtill
p3792
aS'sunday'
p3793
aVpure
p3794
aVnyc
p3795
aVpint
p3796
aVmap
p3797
aVsnd
p3798
aVmat
p3799
aVintrud
p3800
aVmay
p3801
aVmax
p3802
aVjstfrnd
p3803
aS'membership'
p3804
aVmad
p3805
aVmag
p3806
aS'nuerologist'
p3807
aVmah
p3808
aVgrow
p3809
aVman
p3810
aS'noun'
p3811
aVneck
p3812
aVq
aS'switch'
p3813
aS'deposit'
p3814
aVafrican
p3815
aS'basket'
p3816
aVtall
p3817
aVtalk
p3818
aVcute
p3819
aS'northampton'
p3820
aVcuti
p3821
aVgraduat
p3822
aVlst
p3823
aVlyric
p3824
aVlinerent
p3825
aVentitl
p3826
aVjock
p3827
aS'group'
p3828
aVthank
p3829
aVmaid
p3830
aVthanx
p3831
aVent
p3832
aVmain
p3833
aVbedbut
p3834
aVsrsli
p3835
aVlnumbrtr
p3836
aVfinanci
p3837
aVbein
p3838
aVshatter
p3839
aViniti
p3840
aVklnumbr
p3841
aVlunch
p3842
aVtonit
p3843
aVdisappoint
p3844
aVbullshit
p3845
aVpossess
p3846
aVsweetheart
p3847
aVcareless
p3848
aVrock
p3849
aVmisbehav
p3850
aVgetstop
p3851
aVcontinu
p3852
aVahmad
p3853
aVgirl
p3854
aVcanada
p3855
aS'jackson'
p3856
aS'stitch'
p3857
aVtwelv
p3858
aVpock
p3859
aVymca
p3860
aVpoci
p3861
aVcorrect
p3862
aVnumbrwt
p3863
aVearlier
p3864
aVgoto
p3865
aVnumbrwp
p3866
aVnumbrwq
p3867
aS'gota'
p3868
aVnumbrwb
p3869
aVorh
p3870
aVromant
p3871
aVorg
p3872
aVcough
p3873
aVorc
p3874
aVfunki
p3875
aVbangbab
p3876
aVbefor
p3877
aVfirsg
p3878
aVthing
p3879
aVtxttowin
p3880
aVthinl
p3881
aVyest
p3882
aVthink
p3883
aVfrequent
p3884
aS'first'
p3885
aVcarri
p3886
aVquestion
p3887
aVcheesi
p3888
aVlong
p3889
aVoppos
p3890
aVothrwis
p3891
aVslept
p3892
aVcoimbator
p3893
aVshifad
p3894
aVbthere
p3895
aS'butt'
p3896
aVxxuk
p3897
aVnumbrwkg
p3898
aVgotto
p3899
aVignumbr
p3900
aVstockport
p3901
aVlick
p3902
aVgsoh
p3903
aVkatexxx
p3904
aVthatmum
p3905
aVsquat
p3906
aVcastor
p3907
aVadvic
p3908
aVwillpow
p3909
aVbcmnumbr
p3910
aVtrubl
p3911
aVadvis
p3912
aVchannel
p3913
aVkaila
p3914
aVpain
p3915
aViwa
p3916
aVnormal
p3917
aVtrack
p3918
aVpaid
p3919
aVptnumbr
p3920
aVbeta
p3921
aVgreec
p3922
aVpair
p3923
aVbeth
p3924
aVboxnumbrqu
p3925
aVshop
p3926
aVshot
p3927
aVshow
p3928
aVshoe
p3929
aVtakin
p3930
aVfeng
p3931
aVdice
p3932
aVholbi
p3933
aVdick
p3934
aVplumb
p3935
aVunfortuntli
p3936
aVblack
p3937
aVraglan
p3938
aVger
p3939
aVgep
p3940
aVnearli
p3941
aVvariou
p3942
aVget
p3943
aVstomp
p3944
aVsecondari
p3945
aVwashob
p3946
aVgee
p3947
aVgei
p3948
aVponumbr
p3949
aVkalstiya
p3950
aVcstore
p3951
aVstupid
p3952
aVcronumbr
p3953
aVesplanad
p3954
aVcanlov
p3955
aVswalpa
p3956
aS'jabo'
p3957
aVyaxx
p3958
aVseat
p3959
aVhonesti
p3960
aVwonder
p3961
aVachan
p3962
aVsleepin
p3963
aVgage
p3964
aVenough
p3965
aVacross
p3966
aVaugust
p3967
aVparent
p3968
aVju
p3969
aVdeliveredtomorrow
p3970
aVjs
p3971
aVtui
p3972
aVjo
p3973
aVtul
p3974
aVji
p3975
aVjd
p3976
aS'je'
p3977
aVchachi
p3978
aVtue
p3979
aVjb
p3980
aVhanuman
p3981
aS'tour'
p3982
aVrugbi
p3983
aVimprov
p3984
aVamong
p3985
aVcallnumbroptout
p3986
aVcancer
p3987
aVkegger
p3988
aS'antha'
p3989
aS'cancel'
p3990
aVfreak
p3991
aVprasad
p3992
aVultim
p3993
aVmari
p3994
aVmark
p3995
aVmoneysymbnumbrrcvd
p3996
aVarti
p3997
aVbarri
p3998
aVldew
p3999
aVhurrican
p4000
aVwake
p4001
aVbmw
p4002
aVrepres
p4003
aVcrnumbrbt
p4004
aVsound
p4005
aVkappa
p4006
aVhdd
p4007
aVcoca
p4008
aS'coco'
p4009
aVhmmmm
p4010
aVcock
p4011
aVabta
p4012
aVregalportfolio
p4013
aVdestin
p4014
aVstrain
p4015
aVsudden
p4016
aVoutrag
p4017
aVeveryday
p4018
aVqlynnbv
p4019
aVpap
p4020
aVscalli
p4021
aVwnumbra
p4022
aVdoctor
p4023
aS'pax'
p4024
aS'pay'
p4025
aVwoodland
p4026
aVwnumbrj
p4027
aVurself
p4028
aVpai
p4029
aVpan
p4030
aVexhaust
p4031
aVoil
p4032
aVnumbrlb
p4033
aVassist
p4034
aS'oic'
p4035
aVcompanion
p4036
aVnumbrlp
p4037
aVgsex
p4038
aVpostpon
p4039
aVltdhelpdesk
p4040
aVappropri
p4041
aVlautech
p4042
aVpanalam
p4043
aVkaaj
p4044
aVrayman
p4045
aVbtwn
p4046
aVoutdoor
p4047
aVexecut
p4048
aVmoney
p4049
aVpayback
p4050
aVaspect
p4051
aVshldxxxx
p4052
aVasthma
p4053
aVparad
p4054
aVnap
p4055
aVpile
p4056
aS'nuther'
p4057
aS'vivek'
p4058
aS'deepak'
p4059
aVbergkamp
p4060
aVkarnan
p4061
aVmon
p4062
aVmom
p4063
aVmob
p4064
aS'swatch'
p4065
aVgrin
p4066
aVrajitha
p4067
aVserver
p4068
aVrepubl
p4069
aVeither
p4070
aVnosh
p4071
aVnosi
p4072
aVnice
p4073
aVfulfil
p4074
aVhittng
p4075
aVdoll
p4076
aS'naal'
p4077
aVcornwal
p4078
aVwamma
p4079
aVgranit
p4080
aVlotta
p4081
aVconfirm
p4082
aVdoggi
p4083
aVtaxless
p4084
aVfreeentri
p4085
aVmwah
p4086
aVolol
p4087
aVakon
p4088
aVbroken
p4089
aVsmear
p4090
aVuhhhhrmm
p4091
aVinsect
p4092
aVnumbrppw
p4093
aVwaynumbrsm
p4094
aVroad
p4095
aVothr
p4096
aVcheckup
p4097
aVzogtoriu
p4098
aVstrip
p4099
aVuptown
p4100
aVsemiobscur
p4101
aVlionm
p4102
aVnumbrppmsg
p4103
aVlionp
p4104
aVyupz
p4105
aVdaytim
p4106
aVnammanna
p4107
aVtamilnadu
p4108
aVspice
p4109
aVreappli
p4110
aVpossibl
p4111
aVnormnumbrp
p4112
aVunusu
p4113
aVdvg
p4114
aVaffection
p4115
aVgumbi
p4116
aS'deer'
p4117
aVdeep
p4118
aVfellow
p4119
aVfile
p4120
aVcultur
p4121
aVnonumbr
p4122
aVfilm
p4123
aVfill
p4124
aVselfish
p4125
aS'repent'
p4126
aVfield
p4127
aVbrandi
p4128
aVagenumbr
p4129
aVfirmwar
p4130
aVansr
p4131
aVnumbrgetha
p4132
aVnichol
p4133
aVrecent
p4134
aVsenrd
p4135
aVnumbrxxxxxxx
p4136
aVescal
p4137
aVdescript
p4138
aVu
aVnitz
p4139
aVjnumbr
p4140
aVescap
p4141
aVkhelat
p4142
aVoral
p4143
aVmobilesdirect
p4144
aVforget
p4145
aVdollar
p4146
aVvill
p4147
aVliao
p4148
aVchildren
p4149
aVinterflora
p4150
aVedg
p4151
aVnytho
p4152
aS'imma'
p4153
aVsashimi
p4154
aVsehwag
p4155
aVraviyog
p4156
aVmornin
p4157
aVpremium
p4158
aVcorect
p4159
aVentrop
p4160
aVofflin
p4161
aVbevi
p4162
aVpract
p4163
aVscous
p4164
aVfall
p4165
aVehnumbrrr
p4166
aVramen
p4167
aVsteve
p4168
aVfidalf
p4169
aVgoinnumbrb
p4170
aVmumha
p4171
aVffection
p4172
aVjokin
p4173
aVgnarl
p4174
aVritten
p4175
aVburger
p4176
aVzero
p4177
aVexcit
p4178
aVdial
p4179
aS'abi'
p4180
aVabj
p4181
aVstool
p4182
aVabt
p4183
aVninish
p4184
aVpublic
p4185
aVmalaria
p4186
aVwatevr
p4187
aVvale
p4188
aVminmobsmor
p4189
aVvalu
p4190
aVsearch
p4191
aVmargin
p4192
aVairport
p4193
aVprasanth
p4194
aVdubsack
p4195
aVafrica
p4196
aVestablish
p4197
aVmemor
p4198
aVmylif
p4199
aVeye
p4200
aVastn
p4201
aVtackl
p4202
aVtwo
p4203
aVsplash
p4204
aVdiamond
p4205
aVdesir
p4206
aVnver
p4207
aVbrisk
p4208
aVplayng
p4209
aVparticular
p4210
aVyouuuuu
p4211
aS'drpd'
p4212
aVtown
p4213
aVdey
p4214
aVnone
p4215
aVhour
p4216
aVhous
p4217
aVder
p4218
aVdeu
p4219
aVremain
p4220
aVparagraph
p4221
aS'del'
p4222
aVdem
p4223
aVden
p4224
aVdec
p4225
aVdef
p4226
aVstubborn
p4227
aVatlast
p4228
aVtuth
p4229
aVshare
p4230
aVminimum
p4231
aVroddsnumbr
p4232
aVexplos
p4233
aVwanumbr
p4234
aVrobinson
p4235
aVstil
p4236
aVawkward
p4237
aVsecur
p4238
aS'numbrpound'
p4239
aVcomfort
p4240
aVcsc
p4241
aVneeda
p4242
aS'thout'
p4243
aVneedi
p4244
aVcst
p4245
aVneedl
p4246
aVblood
p4247
aVassoci
p4248
aVbleak
p4249
aVcoax
p4250
aS'orchard'
p4251
aVcoat
p4252
aVspoon
p4253
aVstabil
p4254
aVimprtant
p4255
aVrounder
p4256
aVdough
p4257
aVsuffer
p4258
aVthnq
p4259
aVlatr
p4260
aVthnx
p4261
aVlate
p4262
aVpend
p4263
aVpenc
p4264
aVthnk
p4265
aVpeni
p4266
aVgood
p4267
aVnumbrnd
p4268
aVclaypot
p4269
aVoki
p4270
aVadventur
p4271
aVcomplain
p4272
aVantelop
p4273
aVmysteri
p4274
aVeasili
p4275
aVtoken
p4276
aVsamu
p4277
aVuawak
p4278
aVmental
p4279
aVhari
p4280
aVfish
p4281
aVhard
p4282
aVidea
p4283
aVmundh
p4284
aVconnect
p4285
aVenergi
p4286
aVurgnt
p4287
aVwherevr
p4288
aVflower
p4289
aVadmiss
p4290
aVsuprem
p4291
aVchildish
p4292
aVnumbrfind
p4293
aVprinc
p4294
aVprint
p4295
aVolav
p4296
aVdifficulti
p4297
aVishtamayoo
p4298
aVpleasant
p4299
aS'senor'
p4300
aVwrld
p4301
aVbeerag
p4302
aVwither
p4303
aVperman
p4304
aVdont
p4305
aVexchang
p4306
aVolowoyey
p4307
aVafternon
p4308
aS'numbrmarrow'
p4309
aVdone
p4310
aVcaveboy
p4311
aVstabl
p4312
aVleast
p4313
aVpaint
p4314
aVpetexxx
p4315
aVstatement
p4316
aVtwenti
p4317
aVgudnit
p4318
aVthenampet
p4319
aVtenerif
p4320
aVpark
p4321
aVpari
p4322
aS'dentist'
p4323
aVpart
p4324
aS'b'
aVmahal
p4325
aVgotten
p4326
aVareyouuniqu
p4327
aVoutta
p4328
aVconfirmd
p4329
aVbailiff
p4330
aVennal
p4331
aS'mountain'
p4332
aVbuilt
p4333
aVcouch
p4334
aVbuild
p4335
aVwaitin
p4336
aVserena
p4337
aVnumbrss
p4338
aVflute
p4339
aVsalmon
p4340
aVchart
p4341
aVnumbrst
p4342
aVcharm
p4343
aVcharl
p4344
aVcallsnumbrppm
p4345
aVcharg
p4346
aVmoneysymbnumbrcal
p4347
aVkb
p4348
aVkg
p4349
aVtelediscount
p4350
aVke
p4351
aVki
p4352
aVko
p4353
aVkr
p4354
aVtonsolitusaswel
p4355
aVweigh
p4356
aVnumbrmorow
p4357
aVcereal
p4358
aVfink
p4359
aVparticularli
p4360
aVfinn
p4361
aS'fine'
p4362
aS'find'
p4363
aVyck
p4364
aVbanumbrnnfwflynumbrppm
p4365
aVjsco
p4366
aVruin
p4367
aVfiend
p4368
aVunhappi
p4369
aVtyron
p4370
aVexpress
p4371
aVcheaper
p4372
aVspi
p4373
aVdonyt
p4374
aVdrunken
p4375
aVmeiv
p4376
aVuncomfort
p4377
aVhaventcn
p4378
aVprometazin
p4379
aVcommon
p4380
aVswnumbr
p4381
aVxnumbr
p4382
aVlion
p4383
aVibhltd
p4384
aVnumbrmobil
p4385
aVreserv
p4386
aS'expert'
p4387
aVsometh
p4388
aVsometm
p4389
aVtoledo
p4390
aVsubscript
p4391
aVexperi
p4392
aVmeal
p4393
aValtern
p4394
aVappreci
p4395
aVmailbox
p4396
aVcomplementari
p4397
aVpurpl
p4398
aVsantacal
p4399
aValon
p4400
aVforeign
p4401
aValot
p4402
aVotsid
p4403
aVsimpli
p4404
aVelliot
p4405
aVpoint
p4406
aVsuppli
p4407
aVfrndsship
p4408
aVwld
p4409
aVautocorrect
p4410
aVinperialmus
p4411
aVsecret
p4412
aVahhhh
p4413
aVreformat
p4414
aVanythin
p4415
aVgay
p4416
aVmalarki
p4417
aVneglet
p4418
aVunnecessarili
p4419
aVgap
p4420
aVgam
p4421
aVgal
p4422
aS'understand'
p4423
aVchatter
p4424
aVmtalk
p4425
aVhearin
p4426
aVpolitician
p4427
aVsmsing
p4428
aVbilo
p4429
aVbill
p4430
aVfun
p4431
aVful
p4432
aVeveryon
p4433
aVlingo
p4434
aS'wondar'
p4435
aVcentr
p4436
aVthemob
p4437
aVcenturi
p4438
aVonumbr
p4439
aVgolddigg
p4440
aVruth
p4441
aVflurri
p4442
aVsyd
p4443
aVisland
p4444
aS'yesterday'
p4445
aVmoment
p4446
aVstripe
p4447
aVtimin
p4448
aVrecreat
p4449
aVhowu
p4450
aS'howz'
p4451
aVentri
p4452
aVbhayandar
p4453
aVspent
p4454
aVmorrow
p4455
aVwithdraw
p4456
aVswiss
p4457
aVtast
p4458
aVspend
p4459
aVsubscribenumbrgbp
p4460
aVmoneysymbnumbrea
p4461
aVldn
p4462
aVshape
p4463
aVonlyfound
p4464
aVsumf
p4465
aVdespar
p4466
aVcut
p4467
aVcup
p4468
aVcuz
p4469
aVcud
p4470
aVrgd
p4471
aVsnap
p4472
aVbridal
p4473
aVeaster
p4474
aVapp
p4475
aVbin
p4476
aVinlud
p4477
aVbig
p4478
aVbid
p4479
aVjudgement
p4480
aVredeem
p4481
aVbiz
p4482
aVbit
p4483
aVeverythin
p4484
aVperipher
p4485
aVknock
p4486
aVsemi
p4487
aVchristmassi
p4488
aVvisionsm
p4489
aS'often'
p4490
aVlastest
p4491
aVback
p4492
aVnumbrbrekki
p4493
aVmirror
p4494
aVsomewhr
p4495
aVlifpartnr
p4496
aVnumbrthfeb
p4497
aVper
p4498
aS'lara'
p4499
aVmathemat
p4500
aVlarg
p4501
aVpei
p4502
aVlark
p4503
aVpee
p4504
aVnose
p4505
aVpatient
p4506
aVnumbrhl
p4507
aVuse
p4508
aVusc
p4509
aVgrinul
p4510
aVimpos
p4511
aVcoccoon
p4512
aVdrama
p4513
aVgoodi
p4514
aVgoodo
p4515
aVnumbrda
p4516
aVdiwali
p4517
aVatroci
p4518
aVlesson
p4519
aVinclus
p4520
aVcabl
p4521
aVwnumbr
p4522
aVcomnumbrwinnumbrppmxnumbragenumbrsubscript
p4523
aVinclud
p4524
aVforward
p4525
aVhopeso
p4526
aVopponent
p4527
aVboyf
p4528
aVprakasamanu
p4529
aVinclu
p4530
aVhopeu
p4531
aVnumbrwrd
p4532
aVinev
p4533
aVgroovi
p4534
aVconstant
p4535
aVrandomlli
p4536
aVnumbrfre
p4537
aVnaseeb
p4538
aVeastend
p4539
aVlyf
p4540
aVpoboxoxnumbrwnumbrwq
p4541
aVcafe
p4542
aVaiyo
p4543
aVlyk
p4544
aVnigro
p4545
aVlisteningnumbrth
p4546
aVpapa
p4547
aVmuht
p4548
aVdesert
p4549
aVdeserv
p4550
aVdileep
p4551
aVlotto
p4552
aVjason
p4553
aVshoranur
p4554
aVrebtel
p4555
aVprivat
p4556
aVwestshor
p4557
aVsensit
p4558
aVelsewher
p4559
aVbecau
p4560
aVgravel
p4561
aVtalkbut
p4562
aVrandom
p4563
aVxxxxxxxx
p4564
aS'dessert'
p4565
aVmous
p4566
aVshock
p4567
aVhavent
p4568
aVrefer
p4569
aVevrynumbr
p4570
aVmaxnumbrmin
p4571
aVmadurai
p4572
aVfortun
p4573
aVswhrt
p4574
aVhannaford
p4575
aVdownon
p4576
aVaccomod
p4577
aVcarli
p4578
aVsupos
p4579
aVcarlo
p4580
aVedison
p4581
aVaccess
p4582
aVwalkabout
p4583
aVnacho
p4584
aVbodi
p4585
aVsink
p4586
aS'meet'
p4587
aVsing
p4588
aVsinc
p4589
aVmindset
p4590
aVtalent
p4591
aVceri
p4592
aVstagwood
p4593
aVweekday
p4594
aVearli
p4595
aVproof
p4596
aVlimp
p4597
aS'wrkin'
p4598
aVprestig
p4599
aVtxtstop
p4600
aVnigpun
p4601
aVcha
p4602
aVchg
p4603
aS'chk'
p4604
aVwebsit
p4605
aVintha
p4606
aVyelow
p4607
aVkiosk
p4608
aVtrain
p4609
aVrightio
p4610
aVolymp
p4611
aVpthi
p4612
aVlatelyxxx
p4613
aVbritney
p4614
aVf
aVobvious
p4615
aVnumbrppm
p4616
aVmesag
p4617
aVdidnt
p4618
aVfetch
p4619
aValiv
p4620
aVemploye
p4621
aVcappuccino
p4622
aVonlin
p4623
aVsouveni
p4624
aVlamp
p4625
aVfishhead
p4626
aVtaj
p4627
aVaft
p4628
aVcnumbr
p4629
aVdd
p4630
aS'stock'
p4631
aVfran
p4632
aVhvnumbrd
p4633
aVstopbcm
p4634
aVinst
p4635
aVbluff
p4636
aVphilosophi
p4637
aVphysic
p4638
aVtosend
p4639
aS'chief'
p4640
aVhorni
p4641
aVlubli
p4642
aVnnumbr
p4643
aVmadodu
p4644
aVhappiest
p4645
aVfreemsg
p4646
aVbunch
p4647
aVld
p4648
aVle
p4649
aVla
p4650
aVegbon
p4651
aVlo
p4652
aVlk
p4653
aVlabor
p4654
aVlv
p4655
aVmarsm
p4656
aVlt
p4657
aVsteyn
p4658
aVsonathaya
p4659
aVdad
p4660
aVspele
p4661
aVoutbid
p4662
aVdan
p4663
aVdao
p4664
aVdai
p4665
aS'toshiba'
p4666
aS'dat'
p4667
aVmention
p4668
aVcourtroom
p4669
aVnumbrwatershd
p4670
aVday
p4671
aVpanic
p4672
aVastronom
p4673
aVfebruari
p4674
aVgurl
p4675
aVtoke
p4676
aVmtmsgrcvdnumbr
p4677
aVavbl
p4678
aVintellig
p4679
aVmarley
p4680
aVthasa
p4681
aVfondli
p4682
aVmate
p4683
aVstuf
p4684
aVrel
p4685
aVrem
p4686
aS'rec'
p4687
aVref
p4688
aVreg
p4689
aVmath
p4690
aVree
p4691
aVclarifi
p4692
aVinsid
p4693
aVfrank
p4694
aVinvad
p4695
aVque
p4696
aVreleas
p4697
aVmissi
p4698
aVafterward
p4699
aVseptemb
p4700
aVyard
p4701
aVdoublemin
p4702
aVskateboard
p4703
aVpresid
p4704
aVsouth
p4705
aVfinest
p4706
aVethnic
p4707
aVsack
p4708
aVfacil
p4709
aVmonkey
p4710
aVmessag
p4711
aVhilari
p4712
aVcabin
p4713
aVnitro
p4714
aS'somethin'
p4715
aVnumbrjx
p4716
aVkaraok
p4717
aVnumbrja
p4718
aVbxnumbr
p4719
aVnobodi
p4720
aVoga
p4721
aVwishlist
p4722
aVipad
p4723
aVhungov
p4724
aVslack
p4725
aVpretsorginta
p4726
aVlovem
p4727
aVlaxinorf
p4728
aVcharact
p4729
aVmatrixnumbr
p4730
aS'lover'
p4731
aS'neshanth'
p4732
aVshakespear
p4733
aVhava
p4734
aVsoladha
p4735
aVthroat
p4736
aVhavn
p4737
aVmin
p4738
aVmia
p4739
aVodalebeku
p4740
aVmid
p4741
aVmix
p4742
aVindic
p4743
aVgraviti
p4744
aVillspeak
p4745
aVunless
p4746
aVponnungal
p4747
aVeight
p4748
aVpayment
p4749
aVgrumbl
p4750
aVskinni
p4751
aVrequest
p4752
aVhardcor
p4753
aVrecess
p4754
aVtext
p4755
aVmojibiola
p4756
aVtexd
p4757
aVjenxxx
p4758
aVtexa
p4759
aVstaff
p4760
aVresubmit
p4761
aVsatan
p4762
aVconclus
p4763
aVsparkl
p4764
aVtreatin
p4765
aVbeat
p4766
aVqjkgighjjgcbl
p4767
aVtripl
p4768
aVbear
p4769
aS'whassup'
p4770
aVkochi
p4771
aVbead
p4772
aVmonoc
p4773
aVorgan
p4774
aVcdgt
p4775
aVblogspot
p4776
aVconform
p4777
aVapolog
p4778
aVevrey
p4779
aVxxxxx
p4780
aVcomplac
p4781
aVpattern
p4782
aVboundari
p4783
aVralph
p4784
aVmaruti
p4785
aVwn
p4786
aVprogress
p4787
aVsorrow
p4788
aVarmenia
p4789
aVvri
p4790
aVboatin
p4791
aVinstant
p4792
aVjoke
p4793
aVequal
p4794
aVfreeli
p4795
aVgailxx
p4796
aVcomment
p4797
aVbatchlor
p4798
aVab
p4799
aVlaugh
p4800
aVoutlnumbrr
p4801
aVad
p4802
aVeshxxxxxxxxxxx
p4803
aVag
p4804
aVlnumbr
p4805
aVecnumbra
p4806
aS'darren'
p4807
aVnewscast
p4808
aVgaze
p4809
aVelectr
p4810
aVmsgrcvdhg
p4811
aVnumbrmi
p4812
aVridden
p4813
aVcasualti
p4814
aVbull
p4815
aVbulb
p4816
aVan
p4817
aVmulti
p4818
aVplaid
p4819
aVbray
p4820
aValmost
p4821
aVkicchu
p4822
aVsquid
p4823
aVpartner
p4824
aS'grinder'
p4825
aVamplikat
p4826
aVconact
p4827
aVheadstart
p4828
aVfrndz
p4829
aVyourjob
p4830
aVtiempo
p4831
aVnokia
p4832
aVsamantha
p4833
aVretard
p4834
aS'center'
p4835
aVweapon
p4836
aVthought
p4837
aVchoos
p4838
aVlatest
p4839
aVshracomorsglsuplt
p4840
aVtough
p4841
aVlakh
p4842
aVthanksgiv
p4843
aVonward
p4844
aVadd
p4845
aVvoila
p4846
aVcitizen
p4847
aVnumbrunumbr
p4848
aVgmw
p4849
aVmatch
p4850
aVadi
p4851
aS'icic'
p4852
aVknacker
p4853
aVfyi
p4854
aVasssssholeee
p4855
aVdryer
p4856
aVlotsli
p4857
aVrealis
p4858
aVamrita
p4859
aVmotorola
p4860
aVlike
p4861
aVtakecar
p4862
aVsofa
p4863
aS'appt'
p4864
aVtram
p4865
aVchick
p4866
aS'soft'
p4867
aVnumbrcfcanumbra
p4868
aVarmand
p4869
aVgaytextbuddi
p4870
aVything
p4871
aVmoneysymbnumbr
p4872
aVhail
p4873
aVhair
p4874
aVhimso
p4875
aVconvey
p4876
aVproper
p4877
aVtiwari
p4878
aS'tmr'
p4879
aVshrub
p4880
aVesp
p4881
aVwoul
p4882
aVanumbr
p4883
aVjapanes
p4884
aVese
p4885
aVedrunk
p4886
aVhappend
p4887
aVuwana
p4888
aVnoisi
p4889
aVhost
p4890
aValthough
p4891
aVlkpoboxnumbrhpnumbrfl
p4892
aVwnevr
p4893
aVuwant
p4894
aVkalainar
p4895
aVflaki
p4896
aVactual
p4897
aVflake
p4898
aVroomat
p4899
aVtomo
p4900
aVtome
p4901
aVdesper
p4902
aVashwini
p4903
aVdoesnt
p4904
aVshesil
p4905
aVpictur
p4906
aVrct
p4907
aVrcv
p4908
aVrcd
p4909
aVrcb
p4910
aVbuz
p4911
aVbuy
p4912
aVrodger
p4913
aVbrand
p4914
aVvalidnumbrhr
p4915
aVbut
p4916
aVbun
p4917
aVbookshelf
p4918
aVbluetooth
p4919
aVbud
p4920
aValgarv
p4921
aVwise
p4922
aVdhina
p4923
aVwish
p4924
aVj
aVflip
p4925
aS'flim'
p4926
aVglori
p4927
aVbnumbru
p4928
aVcrnumbr
p4929
aVpin
p4930
aVtelphon
p4931
aVwhisper
p4932
aVhandset
p4933
aVpic
p4934
aVpehl
p4935
aVpig
p4936
aVpix
p4937
aVprobabl
p4938
aVguidanc
p4939
aS'detail'
p4940
aS'virtual'
p4941
aVsuganya
p4942
aVnelson
p4943
aVdnot
p4944
aS'alright'
p4945
aVmsgrcvdnumbr
p4946
aVubi
p4947
aVbasketbal
p4948
aVgoin
p4949
aVpilat
p4950
aVspinout
p4951
aVyell
p4952
aVderp
p4953
aVsleep
p4954
aVhate
p4955
aVbfore
p4956
aVkickbox
p4957
aVprizeawait
p4958
aVsiguviri
p4959
aVnumbrhr
p4960
aVttyl
p4961
aVtextoper
p4962
aVasther
p4963
aVpride
p4964
aVleafcutt
p4965
aVeveri
p4966
aVrisk
p4967
aVplanettalkinst
p4968
aVrise
p4969
aVmissionari
p4970
aVjack
p4971
aVemili
p4972
aVschool
p4973
aS'ffffffffff'
p4974
aVphonebook
p4975
aVenjoy
p4976
aVdirect
p4977
aVnail
p4978
aVstreet
p4979
aVfeatheri
p4980
aVsemest
p4981
aVnumbrxxx
p4982
aS'nbme'
p4983
aVblue
p4984
aVhide
p4985
aVchrist
p4986
aVconduct
p4987
aVsupplier
p4988
aVbecz
p4989
aVlodg
p4990
aVgrocer
p4991
aVwoozl
p4992
aVstudio
p4993
aVsmokin
p4994
aVpath
p4995
aVstarer
p4996
aS'remb'
p4997
aVvagu
p4998
aVtx
p4999
aVforum
p5000
aVauction
p5001
aVanymor
p5002
aVsubpoli
p5003
aVfonin
p5004
aS'mentor'
p5005
aVtait
p5006
aVoffc
p5007
aVmnumbrxi
p5008
aVanyhow
p5009
aVpoboxnumbrldnsnumbr
p5010
aVdescrib
p5011
aVwould
p5012
aVprescript
p5013
aVpreview
p5014
aVchatnumbr
p5015
aVmush
p5016
aVlegitimat
p5017
aVgrief
p5018
aVphone
p5019
aVpouch
p5020
aVphoni
p5021
aVtampa
p5022
aVmust
p5023
aVshoot
p5024
aVmg
p5025
aVmf
p5026
aVjoin
p5027
aVmc
p5028
aS'mb'
p5029
aS'mm'
p5030
aVml
p5031
aVmo
p5032
aVmn
p5033
aVmi
p5034
aVmj
p5035
aVmu
p5036
aVmt
p5037
aVmw
p5038
aS'ms'
p5039
aVmr
p5040
aVmy
p5041
aVvelusami
p5042
aVthatnumbrworzel
p5043
aVattract
p5044
aS'enc'
p5045
aVend
p5046
aVeng
p5047
aVmtmsgnumbr
p5048
aVtoxic
p5049
aVgate
p5050
aVcollaps
p5051
aVpoker
p5052
aVcosign
p5053
aVmess
p5054
aVltd
p5055
aVbadli
p5056
aVaccommodationvouch
p5057
aVastoundingli
p5058
aS'splendid'
p5059
aVunclaim
p5060
aVspous
p5061
aVnarcot
p5062
aVenviron
p5063
aVreloc
p5064
aVenter
p5065
aVharlem
p5066
aVentey
p5067
aVcrckt
p5068
aVorang
p5069
aVjacuzzi
p5070
aVlondon
p5071
aVimg
p5072
aVimf
p5073
aVcld
p5074
aVcla
p5075
aS'imp'
p5076
aVhowda
p5077
aVfade
p5078
aVcomprehens
p5079
aVhowdi
p5080
aVeurodisinc
p5081
aVrental
p5082
aVchoic
p5083
aValex
p5084
aVchuck
p5085
aVdetroit
p5086
aVbakrid
p5087
aVnewport
p5088
aVwheel
p5089
aVhanger
p5090
aVsaturday
p5091
aVdepress
p5092
aVgon
p5093
aVnitw
p5094
aVgoe
p5095
aVgod
p5096
aVpsychic
p5097
aVlaid
p5098
aVsane
p5099
aVnite
p5100
aVgot
p5101
aVicki
p5102
aVfren
p5103
aVfree
p5104
aVfieldof
p5105
aVrain
p5106
aVsqnumbr
p5107
aVpmoneysymbnumbr
p5108
aVfret
p5109
aVpuzzl
p5110
aVweightloss
p5111
aVpsnumbr
p5112
aVonto
p5113
aVurawinn
p5114
aVshinco
p5115
aVfantasi
p5116
aVrang
p5117
aVgbpnumbr
p5118
aVonumbrfwd
p5119
aVnecess
p5120
aVrestrict
p5121
aValreadi
p5122
aVteletext
p5123
aVfantast
p5124
aVnumbrtulsi
p5125
aVtor
p5126
aVsarcasm
p5127
aVtop
p5128
aS'tot'
p5129
aVsarcast
p5130
aVtok
p5131
aVton
p5132
aVtol
p5133
aVtom
p5134
aS'toa'
p5135
aS'tog'
p5136
aVhelpnumbr
p5137
aVmurder
p5138
aVconsol
p5139
aVtooo
p5140
aVtool
p5141
aVtook
p5142
aVtoot
p5143
aVwestern
p5144
aVconserv
p5145
aVflame
p5146
aVvaraya
p5147
aVran
p5148
aVraj
p5149
aVscrewd
p5150
aVrat
p5151
aVbiola
p5152
aVray
p5153
aVjule
p5154
aVsteamboat
p5155
aVsnow
p5156
aVsnot
p5157
aVderek
p5158
aVsnog
p5159
aVinsur
p5160
aVplenti
p5161
aVthough
p5162
aS'daaaaa'
p5163
aVbsn
p5164
aVcoin
p5165
aVeveryth
p5166
aVrakhesh
p5167
aVflow
p5168
aVbreathenumbr
p5169
aVdeclar
p5170
aVcarolin
p5171
aVloooooool
p5172
aVabl
p5173
aVqueen
p5174
aVthkin
p5175
aVabouta
p5176
aVradio
p5177
aVbaig
p5178
aVearth
p5179
aVabsolut
p5180
aVexactli
p5181
aVconfigur
p5182
aVsympathet
p5183
aVnumbrxxnumbr
p5184
aVwatch
p5185
aVfluid
p5186
aVraksha
p5187
aVreport
p5188
aVnumbrpnumbr
p5189
aVthekingshead
p5190
aS'sdrybnumbri'
p5191
aVtwice
p5192
aVerupt
p5193
aVkeypad
p5194
aVhabit
p5195
aVgonumbrsri
p5196
aVliquor
p5197
aVvewi
p5198
aVlistenednumbrth
p5199
aVnum
p5200
aVcorrupt
p5201
aVbecausethey
p5202
aS'gloucesterroad'
p5203
aVlsnumbr
p5204
aVmuz
p5205
aVprakasam
p5206
aVyavnt
p5207
aVoutstand
p5208
aVfinger
p5209
aVmum
p5210
aVapproach
p5211
aVdrivin
p5212
aVweak
p5213
aVboss
p5214
aVrto
p5215
aVdevour
p5216
aVwear
p5217
aVnews
p5218
aVprotect
p5219
aVcnupdat
p5220
aVunicef
p5221
aVfault
p5222
aVelaya
p5223
aVplanet
p5224
aVjelli
p5225
aVmovietrivia
p5226
aVsullivan
p5227
aS'trust'
p5228
aVhitler
p5229
aVnake
p5230
aVbeneficiari
p5231
aVbathroom
p5232
aVaccumul
p5233
aVbeer
p5234
aVquickli
p5235
aVpoboxnumbr
p5236
aVxxx
p5237
aVmeatbal
p5238
aVmobileupdnumbr
p5239
aVldnwnumbrh
p5240
aVcatch
p5241
aVamrca
p5242
aVn
aVlesser
p5243
aVdept
p5244
aVpharmaci
p5245
aVgarag
p5246
aVwahala
p5247
aVactivnumbr
p5248
aVbroth
p5249
aVlifebook
p5250
aVnike
p5251
aVsuggest
p5252
aVwound
p5253
aVcomplex
p5254
aVccna
p5255
aS'lasagna'
p5256
aVcomplet
p5257
aVpick
p5258
aVportal
p5259
aVfusion
p5260
aVocean
p5261
aVshortli
p5262
aVgreatest
p5263
aVmilta
p5264
aVmother
p5265
aVjean
p5266
aVnumbrmiss
p5267
aVsnowman
p5268
aVlaptop
p5269
aVtookplac
p5270
aVvid
p5271
aVexpos
p5272
aVdearer
p5273
aS'ela'
p5274
aVels
p5275
aVwcnumbrnnumbrxx
p5276
aVgave
p5277
aVdonat
p5278
aVburnt
p5279
aVapart
p5280
aVditto
p5281
aVgift
p5282
aVhunt
p5283
aVzoom
p5284
aVhunk
p5285
aVavatar
p5286
aVfooti
p5287
aVamor
p5288
aVnumbrlemon
p5289
aVusher
p5290
aVclubz
p5291
aVcooper
p5292
aS'thanxnumbr'
p5293
aVinnumbr
p5294
aVwnumbrtnumbrji
p5295
aVice
p5296
aVcnn
p5297
aVcnl
p5298
aVdiscount
p5299
aVchapter
p5300
aVplum
p5301
aVcurri
p5302
aVurgran
p5303
aVsurround
p5304
aVunfortun
p5305
aVfestiv
p5306
aVdinner
p5307
aVnooooooo
p5308
aVsept
p5309
aS'aha'
p5310
aVhelplin
p5311
aVregist
p5312
aVppm
p5313
aS'bath'
p5314
aVabeg
p5315
aVbatt
p5316
aVabel
p5317
aVaccentur
p5318
aVgiv
p5319
aVvoda
p5320
aVsunlight
p5321
aVvirgin
p5322
aVanderson
p5323
aVseeker
p5324
aVgin
p5325
aVbcmsfwcnumbrnnumbrxx
p5326
aVhead
p5327
aVepsilon
p5328
aVheal
p5329
aVunconvinc
p5330
aVstereo
p5331
aVheat
p5332
aVhear
p5333
aVheap
p5334
aVskilgm
p5335
aVofcours
p5336
aVoutfor
p5337
aVviva
p5338
aS'flavour'
p5339
aVhmm
p5340
aVfundament
p5341
aVnumbrwinaweek
p5342
aVtrip
p5343
aVnh
p5344
aVtix
p5345
aVtiz
p5346
aVno
p5347
aS'oredi'
p5348
aVna
p5349
aVnb
p5350
aVwherear
p5351
aVnd
p5352
aVne
p5353
aVtil
p5354
aVny
p5355
aVnz
p5356
aVtih
p5357
aVtie
p5358
aVnt
p5359
aVnu
p5360
aS'nw'
p5361
aVconect
p5362
aVapologet
p5363
aVphoenix
p5364
aVmagicalsong
p5365
aVconsid
p5366
aVyounger
p5367
aS'longer'
p5368
aVryder
p5369
aVreffer
p5370
aVbambl
p5371
aVserious
p5372
aVbackward
p5373
aVcoach
p5374
aVron
p5375
aS'rob'
p5376
aVcelebr
p5377
aVouch
p5378
aVsignific
p5379
aVllc
p5380
aVrow
p5381
aVmanchest
p5382
aVjurong
p5383
aVmonthlysubscript
p5384
aVlnumbrer
p5385
aVsourc
p5386
aS'numbrthousad'
p5387
aVcook
p5388
aVli
p5389
aVfaggi
p5390
aVcool
p5391
aVlevel
p5392
aVvalentin
p5393
aVbrother
p5394
aVquick
p5395
aVgdeve
p5396
aVfarrel
p5397
aVpmt
p5398
aVslower
p5399
aVporn
p5400
aVtrend
p5401
aVaddamsfa
p5402
aVcolin
p5403
aVvoucher
p5404
aVclubsaisai
p5405
aVfear
p5406
aVsayi
p5407
aVdarkest
p5408
aVstressful
p5409
aVrepli
p5410
aS'pobox'
p5411
aVkama
p5412
aVconfer
p5413
aVwater
p5414
aVnumbrnit
p5415
aVentertain
p5416
aVwatev
p5417
aVjorg
p5418
aVshove
p5419
aVdirt
p5420
aVshangela
p5421
aVhealthi
p5422
aVweird
p5423
aVguilti
p5424
aVnumbrdigit
p5425
aVclosnumbr
p5426
aVforev
p5427
aVdurham
p5428
aVokday
p5429
aVplm
p5430
aVprem
p5431
aVmemori
p5432
aVhorniest
p5433
aVmsn
p5434
aVprey
p5435
aVmsg
p5436
aVtoday
p5437
aVandr
p5438
aVdismay
p5439
aVcapit
p5440
aVyalrigu
p5441
aVluvd
p5442
aVbusnumbr
p5443
aVreligi
p5444
aVnumbrland
p5445
aVbattl
p5446
aVcwnumbrwx
p5447
aVmiiiiiiissssssssss
p5448
aVairtel
p5449
aVchiong
p5450
aVpurpos
p5451
aVstream
p5452
aVstroke
p5453
aValway
p5454
aVvital
p5455
aVanyon
p5456
aVfourth
p5457
aVmquiz
p5458
aVbirthday
p5459
aVeighth
p5460
aVbirthdat
p5461
aVpractic
p5462
aVoptout
p5463
aVuteru
p5464
aVinform
p5465
aVhogli
p5466
aVcombin
p5467
aVsomenumbr
p5468
aS'mallika'
p5469
aVrefund
p5470
aS'bluray'
p5471
aVmidnight
p5472
aVvatian
p5473
aVparacetamol
p5474
aVcanari
p5475
aVswann
p5476
aVmknumbr
p5477
aVvth
p5478
aVsunnumbr
p5479
aVtnumbr
p5480
aS'cutter'
p5481
aVloneli
p5482
aVchuckin
p5483
aVppl
p5484
aVterm
p5485
aVname
p5486
aVentrepreneur
p5487
aVindividu
p5488
aVtorch
p5489
aVnurungu
p5490
aVbusti
p5491
aVpersian
p5492
aVzebra
p5493
aVbegun
p5494
aVbuzz
p5495
aVdiall
p5496
aVprofit
p5497
aVprofil
p5498
aVkent
p5499
aVuncl
p5500
aVfactori
p5501
aVgram
p5502
aS'gautham'
p5503
aVclover
p5504
aVtheori
p5505
aVwnumbrjhl
p5506
aVprescrib
p5507
aVyup
p5508
aVminapn
p5509
aVrefus
p5510
aVamma
p5511
aVturn
p5512
aVplace
p5513
aVyuo
p5514
aVswing
p5515
aVimpost
p5516
aVimposs
p5517
aVammo
p5518
aVorigin
p5519
aVsumnumbr
p5520
aVjnumbrq
p5521
aVbishan
p5522
aVbslvyl
p5523
aVunrecogn
p5524
aViam
p5525
aVarestaur
p5526
aVgiven
p5527
aVchastiti
p5528
aVteenag
p5529
aVstuck
p5530
aVnecessarili
p5531
aVwhite
p5532
aVhug
p5533
aVcope
p5534
aVhum
p5535
aVhun
p5536
aVcopi
p5537
aS'huh'
p5538
aS'hui'
p5539
aVspecifi
p5540
aVhut
p5541
aVlage
p5542
aVholder
p5543
aVserv
p5544
aS'lmao'
p5545
aVyeovil
p5546
aVr
aVbalanc
p5547
aVposit
p5548
aVhavnt
p5549
aVfizz
p5550
aVoath
p5551
aVseri
p5552
aVpre
p5553
aVana
p5554
aVchloe
p5555
aVpro
p5556
aVeverywher
p5557
aVrent
p5558
aS'fffff'
p5559
aVsplashmobil
p5560
aVideal
p5561
aVxxxxxx
p5562
aVsurf
p5563
aVsure
p5564
aVfoundurself
p5565
aVsura
p5566
aVmultipli
p5567
aVurgh
p5568
aVclearer
p5569
aVicon
p5570
aVcorrectli
p5571
aVlater
p5572
aVbabyjontet
p5573
aVnumbrrcv
p5574
aVobedi
p5575
aVgoodnoon
p5576
aVbakra
p5577
aVhungri
p5578
aVraji
p5579
aS'tke'
p5580
aVtron
p5581
aVuncondit
p5582
aVraja
p5583
aVtkl
p5584
aVcheap
p5585
aVcallcost
p5586
aVtkt
p5587
aVembassi
p5588
aVpermiss
p5589
aVhack
p5590
aVdhort
p5591
aVtming
p5592
aVexplicitli
p5593
aVvpod
p5594
aVwood
p5595
aVjazz
p5596
aVmmsto
p5597
aVlighter
p5598
aVmisundrstud
p5599
aVreveal
p5600
aVdramat
p5601
aVjoker
p5602
aVreferin
p5603
aVbrin
p5604
aVwebeburnin
p5605
aVyouwanna
p5606
aVreview
p5607
aVcomp
p5608
aVguitar
p5609
aVhfnumbr
p5610
aVcomo
p5611
aVcomb
p5612
aVcome
p5613
aVreaction
p5614
aVaretak
p5615
aVquiet
p5616
aVcontract
p5617
aVgastroenter
p5618
aS'railway'
p5619
aVcolor
p5620
aVperiod
p5621
aVpop
p5622
aVwondarful
p5623
aS'poo'
p5624
aVpole
p5625
aVubandu
p5626
aVgnumbr
p5627
aVpolo
p5628
aVpod
p5629
aVpoli
p5630
aVturkey
p5631
aVcoupl
p5632
aVhoward
p5633
aVhmvnumbr
p5634
aVhardli
p5635
aVdiseas
p5636
aVlifei
p5637
aVandrew
p5638
aVtiger
p5639
aVnumbrutxt
p5640
aVgoodmorn
p5641
aVimpati
p5642
aVspirit
p5643
aVcase
p5644
aVslipperi
p5645
aVcash
p5646
aVcast
p5647
aViscom
p5648
aVtwigg
p5649
aVnumbr
p5650
aVanytim
p5651
aVbowa
p5652
aVbowl
p5653
aVcheck
p5654
aVmaxmoneysymbnumbr
p5655
aVnightnight
p5656
aVhtml
p5657
aVsucker
p5658
aVeventu
p5659
aVweek
p5660
aVdriver
p5661
aVweed
p5662
aVdirector
p5663
aVfootprint
p5664
aVcartoon
p5665
aVhandsom
p5666
aVreliev
p5667
aVyhl
p5668
aVnotebook
p5669
aVjustifi
p5670
aVhustl
p5671
aVwithout
p5672
aVmodel
p5673
aVreward
p5674
aVviolenc
p5675
aVtip
p5676
aVkill
p5677
aVkilo
p5678
aVblow
p5679
aVhint
p5680
aVrose
p5681
aVexcept
p5682
aVblog
p5683
aVbloo
p5684
aVkingdom
p5685
aS'delhi'
p5686
aVmakin
p5687
aVdivorc
p5688
aVsnore
p5689
aVpatrick
p5690
aVfaber
p5691
aVdeduct
p5692
aVtarot
p5693
aVibuprofen
p5694
aS'canteen'
p5695
aVfreez
p5696
aVslice
p5697
aVmood
p5698
aVporteg
p5699
aVlegal
p5700
aVmoon
p5701
aVfreek
p5702
aVunbeliev
p5703
aVnumbrlion
p5704
aVvenugop
p5705
aVstopc
p5706
aVtxting
p5707
aVquit
p5708
aVgarbag
p5709
aVinspect
p5710
aVnudist
p5711
aVoutreach
p5712
aVyay
p5713
aVfilthyguy
p5714
aV_
aVok
p5715
aVoi
p5716
aVoh
p5717
aVselfindepend
p5718
aVoz
p5719
aVow
p5720
aVou
p5721
aVos
p5722
aVor
p5723
aVgari
p5724
aVwahay
p5725
aVsabarish
p5726
aVjamster
p5727
aVsurli
p5728
aVthere
p5729
aVstrict
p5730
aVlovejen
p5731
aS'yah'
p5732
aVgibe
p5733
aVgibb
p5734
aVregard
p5735
aS'spose'
p5736
aVamongst
p5737
aVuntam
p5738
aVjuz
p5739
aVfaster
p5740
aVstarwarsnumbr
p5741
aVlangport
p5742
aVgrasp
p5743
aVtoilet
p5744
aVtaylor
p5745
aVcinema
p5746
aVstrongli
p5747
aVintro
p5748
aVpen
p5749
aVrvx
p5750
aVrearrang
p5751
aVincorrect
p5752
aVhasnt
p5753
aVidiot
p5754
aVrubber
p5755
aVtrash
p5756
aVptbo
p5757
aVsymbol
p5758
aS'chikku'
p5759
aVmjzgroup
p5760
aVcshnumbr
p5761
aVwife
p5762
aVinvest
p5763
aVwifi
p5764
aVbarcelona
p5765
aVcalld
p5766
aVdokey
p5767
aVpotenti
p5768
aVinvoic
p5769
aVall
p5770
aVali
p5771
aVdasara
p5772
aVlack
p5773
aVdisc
p5774
aVnumbrgthr
p5775
aVabil
p5776
aVfollow
p5777
aVdisk
p5778
aVhmmm
p5779
aVjulianaland
p5780
aVthursday
p5781
aVlekdog
p5782
aVprogram
p5783
aVwoould
p5784
aVwinnersclub
p5785
aVwoman
p5786
aVsong
p5787
aVfar
p5788
aVsoni
p5789
aVkorch
p5790
aVfat
p5791
aVpsychologist
p5792
aS'fan'
p5793
aVfal
p5794
aVfailur
p5795
aVfab
p5796
aVticket
p5797
aVnumbrgift
p5798
aVlist
p5799
aVnamou
p5800
aVnumbryr
p5801
aVtel
p5802
aVten
p5803
aVtea
p5804
aVtee
p5805
aVtex
p5806
aVrate
p5807
aVpressur
p5808
aVdesign
p5809
aVsue
p5810
aVsub
p5811
aVtelugu
p5812
aVsun
p5813
aS'sum'
p5814
aVbrief
p5815
aVcrush
p5816
aVversion
p5817
aVmusta
p5818
aS'sup'
p5819
aVanniversari
p5820
aS'sux'
p5821
aVchristian
p5822
aVkorli
p5823
aVwud
p5824
aVtunji
p5825
aVmmm
p5826
aVfriendsar
p5827
aVdontcha
p5828
aVhogolo
p5829
aVsuddenli
p5830
aVhelpnumbrp
p5831
aVfaint
p5832
aVshite
p5833
aVdino
p5834
aVminor
p5835
aVflat
p5836
aVshahjahan
p5837
aVflag
p5838
aVstick
p5839
aVknown
p5840
aVglad
p5841
aVvaluabl
p5842
aVv
aVmyspac
p5843
aVcallcostnumbrppmmobilesvari
p5844
aVbhaji
p5845
aVsunscreen
p5846
aVcoop
p5847
aVcours
p5848
aVcourt
p5849
aVgoal
p5850
aVrather
p5851
aVdivis
p5852
aVcuddl
p5853
aVokay
p5854
aS'algebra'
p5855
aVreflect
p5856
aVlttr
p5857
aVshort
p5858
aVbarbi
p5859
aVstash
p5860
aVcaus
p5861
aVcallback
p5862
aVshore
p5863
aVshade
p5864
aVoutsomewher
p5865
aVnatwest
p5866
aVmpnumbr
p5867
aVbrotha
p5868
aVmisscal
p5869
aVmission
p5870
aVcross
p5871
aVvenaam
p5872
aVisnt
p5873
aVokden
p5874
aVprap
p5875
aVstyle
p5876
aVpray
p5877
aVabbey
p5878
aVresort
p5879
aVnumbroptout
p5880
aVargentina
p5881
aVsupli
p5882
aS'alter'
p5883
aVsathya
p5884
aVreturn
p5885
aVwoulda
p5886
aVspeechless
p5887
aVsomebodi
p5888
aVbigger
p5889
aVslipper
p5890
aVesaplanad
p5891
aVrefresh
p5892
aVikno
p5893
aVtactless
p5894
aVgoodtim
p5895
aVfriendship
p5896
aVweight
p5897
aVduchess
p5898
aVexpect
p5899
aVsoire
p5900
aVhttp
p5901
aValdrin
p5902
aVanyplac
p5903
aVsuppos
p5904
aValcohol
p5905
aVaslamalaikkum
p5906
aVpromo
p5907
aVprolli
p5908
aVhill
p5909
aVgorgeou
p5910
aVqbank
p5911
aVadvanc
p5912
aVfriday
p5913
aVwishin
p5914
aVshortcod
p5915
aVteach
p5916
aVguy
p5917
aVthrown
p5918
aVthread
p5919
aVgarment
p5920
aVlareadi
p5921
aVperhap
p5922
aVboytoy
p5923
aVthreat
p5924
aVfallen
p5925
aVding
p5926
aVdine
p5927
aVnotifi
p5928
aVfromm
p5929
aVfamou
p5930
aVfeet
p5931
aVpsxtra
p5932
aS'dint'
p5933
aVblank
p5934
aVfanci
p5935
aVmoan
p5936
aVlsnumbrbb
p5937
aVstori
p5938
aVstorm
p5939
aVtonght
p5940
aVgpu
p5941
aVsyrup
p5942
aVstore
p5943
aVnecklac
p5944
aVluckili
p5945
aVoption
p5946
aVpump
p5947
aVhelloooo
p5948
aVhotel
p5949
aVwudn
p5950
aVaeronaut
p5951
aVuncut
p5952
aVmudyadhu
p5953
aVking
p5954
aVkind
p5955
aVwhenev
p5956
aVremov
p5957
aVkalisidar
p5958
aVonam
p5959
aVstalk
p5960
aS'dang'
p5961
aS'dane'
p5962
aVdanc
p5963
aVpoboxnumbrwnumbrtgnumbrp
p5964
aVjsut
p5965
aVwizzl
p5966
aVexpir
p5967
aVdedic
p5968
aVviolat
p5969
aVport
p5970
aS'buff'
p5971
aVwildlif
p5972
aS'reckon'
p5973
aVreach
p5974
aVreact
p5975
aVunsub
p5976
aVsplat
p5977
aVamaz
p5978
aVdoggin
p5979
aVmadok
p5980
aS'paru'
p5981
aVstoner
p5982
aVrtf
p5983
aVrtm
p5984
aVmelodi
p5985
aVfond
p5986
aVbff
p5987
aVshld
p5988
aVbbdelux
p5989
aS'rayan'
p5990
aS'hip'
p5991
aS'hit'
p5992
aVtcr
p5993
aVfinanc
p5994
aVnumbrxnumbrp
p5995
aVfastest
p5996
aS'luton'
p5997
aVofstuff
p5998
aVwrote
p5999
aVcertif
p6000
aS'arr'
p6001
aVart
p6002
aVdump
p6003
aVnumbrmrw
p6004
aVengalnd
p6005
aVpisc
p6006
aS'dumb'
p6007
aVbari
p6008
aVari
p6009
aVbarm
p6010
aVarm
p6011
aVinconveni
p6012
aVnumbrnnumbrqp
p6013
aVsptv
p6014
aS'watchin'
p6015
aVidew
p6016
aVsold
p6017
aS'uup'
p6018
aS'outfit'
p6019
aVarrang
p6020
aVsolv
p6021
aVc
aVbreakin
p6022
aVdabbl
p6023
aVmahav
p6024
aVvettam
p6025
aVsweet
p6026
aVoyea
p6027
aVlolnic
p6028
aVweasel
p6029
aVmistak
p6030
aVsimpler
p6031
aVsmartcal
p6032
aVjava
p6033
aVdun
p6034
aS'duo'
p6035
aS'dub'
p6036
aVdue
p6037
aVpc
p6038
aVpa
p6039
aVpg
p6040
aVph
p6041
aVpo
p6042
aVpl
p6043
aVpm
p6044
aVflight
p6045
aVdemand
p6046
aVkolathupalayam
p6047
aVvarunnathu
p6048
aVstolen
p6049
aVbatch
p6050
aVtnumbrgetnumbrtext
p6051
aVecstasi
p6052
aVblond
p6053
aVrip
p6054
aVleann
p6055
aVaquariu
p6056
aVyogasana
p6057
aVshirt
p6058
aS'thandiyachu'
p6059
aVnimya
p6060
aVntwk
p6061
aVnumbrget
p6062
aVwherev
p6063
aVkanagu
p6064
aVlower
p6065
aVsuman
p6066
aVcheek
p6067
aVsleepingwith
p6068
aVcheer
p6069
aVchees
p6070
aVanybodi
p6071
aVpropos
p6072
aVreliant
p6073
aVwitin
p6074
aVtigress
p6075
aS'tablet'
p6076
aVairnumbr
p6077
aVtheoret
p6078
aVboxnumbrwrnumbrc
p6079
aVbuen
p6080
aVkodstini
p6081
aVcomplaint
p6082
aVnumbrinfo
p6083
aVsittin
p6084
aS'lovin'
p6085
aVsac
p6086
aS'ctter'
p6087
aVjp
p6088
aVapologis
p6089
aVchinnu
p6090
aVcollect
p6091
aVunderstood
p6092
aVstewarts
p6093
aVsurpris
p6094
aVunjalur
p6095
aVprop
p6096
aVanni
p6097
aVprof
p6098
aVprod
p6099
aVprob
p6100
aVanna
p6101
aVpreviou
p6102
aS'raiden'
p6103
aVlose
p6104
aVsqueez
p6105
aVstrtd
p6106
aVqing
p6107
aVcomplimentari
p6108
aVmiracl
p6109
aVgudnyt
p6110
aVannounc
p6111
aVcanal
p6112
aVbruv
p6113
aVlone
p6114
aValaikkum
p6115
aVfast
p6116
aVbrum
p6117
aVarithmet
p6118
aVpetticoatdream
p6119
aVloung
p6120
aVwnumbrrg
p6121
aVinfern
p6122
aVcloth
p6123
aVkavalan
p6124
aVwnt
p6125
aVtruenumbr
p6126
aVconsist
p6127
aVcaller
p6128
aVbstfrnd
p6129
aVz
aVmatra
p6130
aVralli
p6131
aVsublet
p6132
aVspontan
p6133
aVgrr
p6134
aVpeach
p6135
aVpcnumbr
p6136
aVtesco
p6137
aVnick
p6138
aVgre
p6139
aVgrl
p6140
aVanjola
p6141
aVincomm
p6142
aVdabook
p6143
aVsutra
p6144
aVbaaaaaaaab
p6145
aVmissin
p6146
aVmeaning
p6147
aVkz
p6148
aS'dled'
p6149
aVbcoz
p6150
aVremix
p6151
aVhappier
p6152
aVgeeee
p6153
aVbroad
p6154
aVneces
p6155
aVwipro
p6156
aVwindi
p6157
aVpoyyarikatur
p6158
aVprobthat
p6159
aVstrnumbr
p6160
aVcitylink
p6161
aVunev
p6162
aVgang
p6163
aVedu
p6164
aVgolf
p6165
aVshanghai
p6166
aVcuppa
p6167
aVfwiw
p6168
aVja
p6169
aVspook
p6170
aVmisplac
p6171
aS'jerk'
p6172
aVpleas
p6173
aVsomeday
p6174
aVcap
p6175
aVfold
p6176
aS'umma'
p6177
aVreunion
p6178
aVacid
p6179
aVfolk
p6180
aVcompar
p6181
aVvibrat
p6182
aVsexi
p6183
aVcozi
p6184
aVmsgnumbrp
p6185
aVstopnumbrstop
p6186
aVsnumbrxi
p6187
aVmiser
p6188
aVcyclist
p6189
aVgeeeee
p6190
aVtypic
p6191
aVweddin
p6192
aVbare
p6193
aVappli
p6194
aVbrdget
p6195
aVapt
p6196
aVapo
p6197
aVmotor
p6198
aVduck
p6199
aVnumbrmph
p6200
aVape
p6201
aVusf
p6202
aVfed
p6203
aVfee
p6204
aVfeb
p6205
aVusb
p6206
aVusa
p6207
aVfrog
p6208
aVtxtx
p6209
aVusp
p6210
aVvelli
p6211
aVlookatm
p6212
aVsort
p6213
aVclever
p6214
aVimpress
p6215
aS'sore'
p6216
aVrecount
p6217
aVsori
p6218
aVwomen
p6219
aVannoy
p6220
aS'heard'
p6221
aVproov
p6222
aVwildest
p6223
aS'aight'
p6224
aVtxtstar
p6225
aVtat
p6226
aVtau
p6227
aVmandara
p6228
aVtap
p6229
aVtax
p6230
aVslove
p6231
aVtag
p6232
aVtai
p6233
aVrape
p6234
aVsir
p6235
aVsip
p6236
aVsit
p6237
aVsix
p6238
aVcardin
p6239
aVsic
p6240
aVsib
p6241
aVinstead
p6242
aVdwn
p6243
aVsim
p6244
aVstereophon
p6245
aS'tension'
p6246
aVcupboard
p6247
aVattend
p6248
aVbeeen
p6249
aVtact
p6250
aVattent
p6251
aVtaco
p6252
aVrcvd
p6253
aVvillag
p6254
aVhonestli
p6255
aVlight
p6256
aVfullonsm
p6257
aVnumbrzf
p6258
aVjoanna
p6259
aVclubnumbrmobil
p6260
aS'numbrtfnumbrp'
p6261
aVnumbrfrom
p6262
aVsuperior
p6263
aVlect
p6264
aVbabygoodby
p6265
aVtyler
p6266
aVholiday
p6267
aVcrash
p6268
aS'flew'
p6269
aVflea
p6270
aVbilli
p6271
aVedit
p6272
aVtheseday
p6273
aVastrolog
p6274
aVweather
p6275
aVproblum
p6276
aVout
p6277
aVwalsal
p6278
aVnumbrxx
p6279
aVsentiment
p6280
aVsingapor
p6281
aVvco
p6282
aVcategori
p6283
aVgrnumbr
p6284
aVrpli
p6285
aVokey
p6286
aS'plural'
p6287
aVavalarr
p6288
aVipod
p6289
aVsatsgettin
p6290
aVdictionari
p6291
aVyorg
p6292
aVrelat
p6293
aVtenant
p6294
aVpromptli
p6295
aVcri
p6296
aVg
aVhunni
p6297
aVorganis
p6298
aVadrian
p6299
aVoblising
p6300
aVecho
p6301
aVtwat
p6302
aVprioriti
p6303
aVunknown
p6304
aVaccent
p6305
aVcapac
p6306
aVpracticum
p6307
aVsian
p6308
aVshell
p6309
aVsamachara
p6310
aS'shelf'
p6311
aVjuli
p6312
aVorno
p6313
aVdontpleas
p6314
aVshelv
p6315
aVshakara
p6316
aVclip
p6317
aVfavorit
p6318
aVlvblefrnd
p6319
aVcrucifi
p6320
aVcoher
p6321
aVcantdo
p6322
aVculdnt
p6323
aVafraid
p6324
aVrout
p6325
aVahold
p6326
aVmoneysymbnumbrpmmorefrommobilenumbrbremov
p6327
aVdivert
p6328
aVtrivia
p6329
aVpractis
p6330
aVclash
p6331
aVpetrol
p6332
aVwhn
p6333
aVwho
p6334
aVwhr
p6335
aVvinobanagar
p6336
aVwirenumbr
p6337
aVextermin
p6338
aVclass
p6339
aVtomeandsaid
p6340
aVdent
p6341
aVdeni
p6342
aVfujitsu
p6343
aVdetermin
p6344
aVfowler
p6345
aVxavier
p6346
aVdena
p6347
aVgain
p6348
aVgoldvik
p6349
aVdorothi
p6350
aVgail
p6351
aVutter
p6352
aVchicken
p6353
aVdebat
p6354
aVnearer
p6355
aVear
p6356
aVlocat
p6357
aVmumbai
p6358
aVhg
p6359
aVrahul
p6360
aVlocal
p6361
aVspun
p6362
aVworkin
p6363
aVcontribut
p6364
aVnoncomitt
p6365
aVawww
p6366
aVpresley
p6367
aVwallpap
p6368
aVtemp
p6369
aVqi
p6370
aVgoggl
p6371
aVview
p6372
aVarsen
p6373
aVdisastr
p6374
aVdogbreath
p6375
aVbanneduk
p6376
aVtroubl
p6377
aVviolet
p6378
aVcloser
p6379
aVdlf
p6380
aVitna
p6381
aVsuperb
p6382
aVfavor
p6383
aS'minmoremobsemspoboxnumbrponumbrwa'
p6384
aVbought
p6385
aVyifeng
p6386
aVjot
p6387
aS'exam'
p6388
aVjoy
p6389
aVzouk
p6390
aVjob
p6391
aVentir
p6392
aVjod
p6393
aS'spoil'
p6394
aVjog
p6395
aVjon
p6396
aVapril
p6397
aVatleast
p6398
aVnumbrwaxsto
p6399
aVwale
p6400
aVwall
p6401
aVarriv
p6402
aVwalk
p6403
aVrespect
p6404
aVjustbeen
p6405
aVrpl
p6406
aVamigo
p6407
aVwestonzoyland
p6408
aVdecent
p6409
aVbbd
p6410
aVbbc
p6411
aVunspoken
p6412
aVbesid
p6413
aVmotherfuck
p6414
aVbbq
p6415
aVmike
p6416
aVliverpool
p6417
aVtreasur
p6418
aVpresenc
p6419
aVhmv
p6420
aVnickey
p6421
aVilol
p6422
aVmcat
p6423
aS'hme'
p6424
aVurmom
p6425
aVpresent
p6426
aVwill
p6427
aVwild
p6428
aVcashto
p6429
aVthur
p6430
aVnumbrcup
p6431
aVavo
p6432
aVmotiv
p6433
aVdual
p6434
aVave
p6435
aVnumbrmnumbraq
p6436
aVava
p6437
aVwhore
p6438
aVgeti
p6439
aVpenni
p6440
aVnjan
p6441
aVantibiot
p6442
aVcine
p6443
aVgete
p6444
aVmember
p6445
aVgetz
p6446
aVlargest
p6447
aVinch
p6448
aVdifficult
p6449
aVslave
p6450
aVcollag
p6451
aVlobbi
p6452
aVstudent
p6453
aVsuzi
p6454
aVlyricalladi
p6455
aVenglish
p6456
aVbreaker
p6457
aVsporad
p6458
aVmfl
p6459
aVnusstu
p6460
aVnevamind
p6461
aVugadi
p6462
aVbraindanc
p6463
aVheavili
p6464
aVdobbi
p6465
aVpanther
p6466
aVdrunk
p6467
aVsmith
p6468
aVdiscuss
p6469
aS'book'
p6470
aVmypar
p6471
aVknow
p6472
aVpress
p6473
aVcochin
p6474
aVincred
p6475
aS'sindu'
p6476
aVloser
p6477
aS'kadeem'
p6478
aVdearnumbr
p6479
aVtmorow
p6480
aVwaqt
p6481
aVnagar
p6482
aVqet
p6483
aVsmoothli
p6484
aVleaf
p6485
aVlead
p6486
aVleav
p6487
aVsettl
p6488
aVrstm
p6489
aVinvestig
p6490
aVsppok
p6491
aS'obey'
p6492
aVnumbrgiv
p6493
aVdosometh
p6494
aVobes
p6495
aVwesley
p6496
aVmite
p6497
aVpoortiyagi
p6498
aVfudg
p6499
aS'swear'
p6500
aVpropsd
p6501
aVowl
p6502
aVowo
p6503
aVown
p6504
aVel
p6505
aS'owe'
p6506
aVbrilliantli
p6507
aVwarranti
p6508
aVjobyet
p6509
aVchamp
p6510
aVboggi
p6511
aVjaninexx
p6512
aVpostal
p6513
aS'transfer'
p6514
aVmunster
p6515
aVspiral
p6516
aVappl
p6517
aVappi
p6518
aVed
p6519
aVvat
p6520
aVlandlineonli
p6521
aVlooovvv
p6522
aVbaaaaab
p6523
aVshant
p6524
aS'made'
p6525
aS'hitter'
p6526
aVarnt
p6527
aVwhether
p6528
aVcostmoneysymbnumbr
p6529
aVdistract
p6530
aVrecord
p6531
aVbelov
p6532
aVarng
p6533
aVcake
p6534
aVfaggot
p6535
aVstuffnumbrmoro
p6536
aVcmon
p6537
aVatten
p6538
aVanji
p6539
aVmeaningless
p6540
aVjenni
p6541
aVbuffi
p6542
aVccnumbrp
p6543
aS'percent'
p6544
aVother
p6545
aVsick
p6546
aVboob
p6547
aVjune
p6548
aVmargaret
p6549
aVkinda
p6550
aVcliff
p6551
aVitcould
p6552
aVlsnumbrhb
p6553
aVdownstem
p6554
aVemerg
p6555
aVnumbrppermesssubscript
p6556
a.